
main.o:     file format elf64-x86-64


Disassembly of section .init:

0000000000006000 <_init>:
    6000:	f3 0f 1e fa          	endbr64 
    6004:	48 83 ec 08          	sub    rsp,0x8
    6008:	48 8b 05 d1 8f 03 00 	mov    rax,QWORD PTR [rip+0x38fd1]        # 3efe0 <__gmon_start__@Base>
    600f:	48 85 c0             	test   rax,rax
    6012:	74 02                	je     6016 <_init+0x16>
    6014:	ff d0                	call   rax
    6016:	48 83 c4 08          	add    rsp,0x8
    601a:	c3                   	ret    

Disassembly of section .plt:

0000000000006020 <.plt>:
    6020:	ff 35 02 8d 03 00    	push   QWORD PTR [rip+0x38d02]        # 3ed28 <_GLOBAL_OFFSET_TABLE_+0x8>
    6026:	f2 ff 25 03 8d 03 00 	bnd jmp QWORD PTR [rip+0x38d03]        # 3ed30 <_GLOBAL_OFFSET_TABLE_+0x10>
    602d:	0f 1f 00             	nop    DWORD PTR [rax]
    6030:	f3 0f 1e fa          	endbr64 
    6034:	68 00 00 00 00       	push   0x0
    6039:	f2 e9 e1 ff ff ff    	bnd jmp 6020 <_init+0x20>
    603f:	90                   	nop
    6040:	f3 0f 1e fa          	endbr64 
    6044:	68 01 00 00 00       	push   0x1
    6049:	f2 e9 d1 ff ff ff    	bnd jmp 6020 <_init+0x20>
    604f:	90                   	nop
    6050:	f3 0f 1e fa          	endbr64 
    6054:	68 02 00 00 00       	push   0x2
    6059:	f2 e9 c1 ff ff ff    	bnd jmp 6020 <_init+0x20>
    605f:	90                   	nop
    6060:	f3 0f 1e fa          	endbr64 
    6064:	68 03 00 00 00       	push   0x3
    6069:	f2 e9 b1 ff ff ff    	bnd jmp 6020 <_init+0x20>
    606f:	90                   	nop
    6070:	f3 0f 1e fa          	endbr64 
    6074:	68 04 00 00 00       	push   0x4
    6079:	f2 e9 a1 ff ff ff    	bnd jmp 6020 <_init+0x20>
    607f:	90                   	nop
    6080:	f3 0f 1e fa          	endbr64 
    6084:	68 05 00 00 00       	push   0x5
    6089:	f2 e9 91 ff ff ff    	bnd jmp 6020 <_init+0x20>
    608f:	90                   	nop
    6090:	f3 0f 1e fa          	endbr64 
    6094:	68 06 00 00 00       	push   0x6
    6099:	f2 e9 81 ff ff ff    	bnd jmp 6020 <_init+0x20>
    609f:	90                   	nop
    60a0:	f3 0f 1e fa          	endbr64 
    60a4:	68 07 00 00 00       	push   0x7
    60a9:	f2 e9 71 ff ff ff    	bnd jmp 6020 <_init+0x20>
    60af:	90                   	nop
    60b0:	f3 0f 1e fa          	endbr64 
    60b4:	68 08 00 00 00       	push   0x8
    60b9:	f2 e9 61 ff ff ff    	bnd jmp 6020 <_init+0x20>
    60bf:	90                   	nop
    60c0:	f3 0f 1e fa          	endbr64 
    60c4:	68 09 00 00 00       	push   0x9
    60c9:	f2 e9 51 ff ff ff    	bnd jmp 6020 <_init+0x20>
    60cf:	90                   	nop
    60d0:	f3 0f 1e fa          	endbr64 
    60d4:	68 0a 00 00 00       	push   0xa
    60d9:	f2 e9 41 ff ff ff    	bnd jmp 6020 <_init+0x20>
    60df:	90                   	nop
    60e0:	f3 0f 1e fa          	endbr64 
    60e4:	68 0b 00 00 00       	push   0xb
    60e9:	f2 e9 31 ff ff ff    	bnd jmp 6020 <_init+0x20>
    60ef:	90                   	nop
    60f0:	f3 0f 1e fa          	endbr64 
    60f4:	68 0c 00 00 00       	push   0xc
    60f9:	f2 e9 21 ff ff ff    	bnd jmp 6020 <_init+0x20>
    60ff:	90                   	nop
    6100:	f3 0f 1e fa          	endbr64 
    6104:	68 0d 00 00 00       	push   0xd
    6109:	f2 e9 11 ff ff ff    	bnd jmp 6020 <_init+0x20>
    610f:	90                   	nop
    6110:	f3 0f 1e fa          	endbr64 
    6114:	68 0e 00 00 00       	push   0xe
    6119:	f2 e9 01 ff ff ff    	bnd jmp 6020 <_init+0x20>
    611f:	90                   	nop
    6120:	f3 0f 1e fa          	endbr64 
    6124:	68 0f 00 00 00       	push   0xf
    6129:	f2 e9 f1 fe ff ff    	bnd jmp 6020 <_init+0x20>
    612f:	90                   	nop
    6130:	f3 0f 1e fa          	endbr64 
    6134:	68 10 00 00 00       	push   0x10
    6139:	f2 e9 e1 fe ff ff    	bnd jmp 6020 <_init+0x20>
    613f:	90                   	nop
    6140:	f3 0f 1e fa          	endbr64 
    6144:	68 11 00 00 00       	push   0x11
    6149:	f2 e9 d1 fe ff ff    	bnd jmp 6020 <_init+0x20>
    614f:	90                   	nop
    6150:	f3 0f 1e fa          	endbr64 
    6154:	68 12 00 00 00       	push   0x12
    6159:	f2 e9 c1 fe ff ff    	bnd jmp 6020 <_init+0x20>
    615f:	90                   	nop
    6160:	f3 0f 1e fa          	endbr64 
    6164:	68 13 00 00 00       	push   0x13
    6169:	f2 e9 b1 fe ff ff    	bnd jmp 6020 <_init+0x20>
    616f:	90                   	nop
    6170:	f3 0f 1e fa          	endbr64 
    6174:	68 14 00 00 00       	push   0x14
    6179:	f2 e9 a1 fe ff ff    	bnd jmp 6020 <_init+0x20>
    617f:	90                   	nop
    6180:	f3 0f 1e fa          	endbr64 
    6184:	68 15 00 00 00       	push   0x15
    6189:	f2 e9 91 fe ff ff    	bnd jmp 6020 <_init+0x20>
    618f:	90                   	nop
    6190:	f3 0f 1e fa          	endbr64 
    6194:	68 16 00 00 00       	push   0x16
    6199:	f2 e9 81 fe ff ff    	bnd jmp 6020 <_init+0x20>
    619f:	90                   	nop
    61a0:	f3 0f 1e fa          	endbr64 
    61a4:	68 17 00 00 00       	push   0x17
    61a9:	f2 e9 71 fe ff ff    	bnd jmp 6020 <_init+0x20>
    61af:	90                   	nop
    61b0:	f3 0f 1e fa          	endbr64 
    61b4:	68 18 00 00 00       	push   0x18
    61b9:	f2 e9 61 fe ff ff    	bnd jmp 6020 <_init+0x20>
    61bf:	90                   	nop
    61c0:	f3 0f 1e fa          	endbr64 
    61c4:	68 19 00 00 00       	push   0x19
    61c9:	f2 e9 51 fe ff ff    	bnd jmp 6020 <_init+0x20>
    61cf:	90                   	nop
    61d0:	f3 0f 1e fa          	endbr64 
    61d4:	68 1a 00 00 00       	push   0x1a
    61d9:	f2 e9 41 fe ff ff    	bnd jmp 6020 <_init+0x20>
    61df:	90                   	nop
    61e0:	f3 0f 1e fa          	endbr64 
    61e4:	68 1b 00 00 00       	push   0x1b
    61e9:	f2 e9 31 fe ff ff    	bnd jmp 6020 <_init+0x20>
    61ef:	90                   	nop
    61f0:	f3 0f 1e fa          	endbr64 
    61f4:	68 1c 00 00 00       	push   0x1c
    61f9:	f2 e9 21 fe ff ff    	bnd jmp 6020 <_init+0x20>
    61ff:	90                   	nop
    6200:	f3 0f 1e fa          	endbr64 
    6204:	68 1d 00 00 00       	push   0x1d
    6209:	f2 e9 11 fe ff ff    	bnd jmp 6020 <_init+0x20>
    620f:	90                   	nop
    6210:	f3 0f 1e fa          	endbr64 
    6214:	68 1e 00 00 00       	push   0x1e
    6219:	f2 e9 01 fe ff ff    	bnd jmp 6020 <_init+0x20>
    621f:	90                   	nop
    6220:	f3 0f 1e fa          	endbr64 
    6224:	68 1f 00 00 00       	push   0x1f
    6229:	f2 e9 f1 fd ff ff    	bnd jmp 6020 <_init+0x20>
    622f:	90                   	nop
    6230:	f3 0f 1e fa          	endbr64 
    6234:	68 20 00 00 00       	push   0x20
    6239:	f2 e9 e1 fd ff ff    	bnd jmp 6020 <_init+0x20>
    623f:	90                   	nop
    6240:	f3 0f 1e fa          	endbr64 
    6244:	68 21 00 00 00       	push   0x21
    6249:	f2 e9 d1 fd ff ff    	bnd jmp 6020 <_init+0x20>
    624f:	90                   	nop
    6250:	f3 0f 1e fa          	endbr64 
    6254:	68 22 00 00 00       	push   0x22
    6259:	f2 e9 c1 fd ff ff    	bnd jmp 6020 <_init+0x20>
    625f:	90                   	nop
    6260:	f3 0f 1e fa          	endbr64 
    6264:	68 23 00 00 00       	push   0x23
    6269:	f2 e9 b1 fd ff ff    	bnd jmp 6020 <_init+0x20>
    626f:	90                   	nop
    6270:	f3 0f 1e fa          	endbr64 
    6274:	68 24 00 00 00       	push   0x24
    6279:	f2 e9 a1 fd ff ff    	bnd jmp 6020 <_init+0x20>
    627f:	90                   	nop
    6280:	f3 0f 1e fa          	endbr64 
    6284:	68 25 00 00 00       	push   0x25
    6289:	f2 e9 91 fd ff ff    	bnd jmp 6020 <_init+0x20>
    628f:	90                   	nop
    6290:	f3 0f 1e fa          	endbr64 
    6294:	68 26 00 00 00       	push   0x26
    6299:	f2 e9 81 fd ff ff    	bnd jmp 6020 <_init+0x20>
    629f:	90                   	nop
    62a0:	f3 0f 1e fa          	endbr64 
    62a4:	68 27 00 00 00       	push   0x27
    62a9:	f2 e9 71 fd ff ff    	bnd jmp 6020 <_init+0x20>
    62af:	90                   	nop
    62b0:	f3 0f 1e fa          	endbr64 
    62b4:	68 28 00 00 00       	push   0x28
    62b9:	f2 e9 61 fd ff ff    	bnd jmp 6020 <_init+0x20>
    62bf:	90                   	nop
    62c0:	f3 0f 1e fa          	endbr64 
    62c4:	68 29 00 00 00       	push   0x29
    62c9:	f2 e9 51 fd ff ff    	bnd jmp 6020 <_init+0x20>
    62cf:	90                   	nop
    62d0:	f3 0f 1e fa          	endbr64 
    62d4:	68 2a 00 00 00       	push   0x2a
    62d9:	f2 e9 41 fd ff ff    	bnd jmp 6020 <_init+0x20>
    62df:	90                   	nop
    62e0:	f3 0f 1e fa          	endbr64 
    62e4:	68 2b 00 00 00       	push   0x2b
    62e9:	f2 e9 31 fd ff ff    	bnd jmp 6020 <_init+0x20>
    62ef:	90                   	nop
    62f0:	f3 0f 1e fa          	endbr64 
    62f4:	68 2c 00 00 00       	push   0x2c
    62f9:	f2 e9 21 fd ff ff    	bnd jmp 6020 <_init+0x20>
    62ff:	90                   	nop
    6300:	f3 0f 1e fa          	endbr64 
    6304:	68 2d 00 00 00       	push   0x2d
    6309:	f2 e9 11 fd ff ff    	bnd jmp 6020 <_init+0x20>
    630f:	90                   	nop
    6310:	f3 0f 1e fa          	endbr64 
    6314:	68 2e 00 00 00       	push   0x2e
    6319:	f2 e9 01 fd ff ff    	bnd jmp 6020 <_init+0x20>
    631f:	90                   	nop
    6320:	f3 0f 1e fa          	endbr64 
    6324:	68 2f 00 00 00       	push   0x2f
    6329:	f2 e9 f1 fc ff ff    	bnd jmp 6020 <_init+0x20>
    632f:	90                   	nop
    6330:	f3 0f 1e fa          	endbr64 
    6334:	68 30 00 00 00       	push   0x30
    6339:	f2 e9 e1 fc ff ff    	bnd jmp 6020 <_init+0x20>
    633f:	90                   	nop
    6340:	f3 0f 1e fa          	endbr64 
    6344:	68 31 00 00 00       	push   0x31
    6349:	f2 e9 d1 fc ff ff    	bnd jmp 6020 <_init+0x20>
    634f:	90                   	nop
    6350:	f3 0f 1e fa          	endbr64 
    6354:	68 32 00 00 00       	push   0x32
    6359:	f2 e9 c1 fc ff ff    	bnd jmp 6020 <_init+0x20>
    635f:	90                   	nop
    6360:	f3 0f 1e fa          	endbr64 
    6364:	68 33 00 00 00       	push   0x33
    6369:	f2 e9 b1 fc ff ff    	bnd jmp 6020 <_init+0x20>
    636f:	90                   	nop
    6370:	f3 0f 1e fa          	endbr64 
    6374:	68 34 00 00 00       	push   0x34
    6379:	f2 e9 a1 fc ff ff    	bnd jmp 6020 <_init+0x20>
    637f:	90                   	nop
    6380:	f3 0f 1e fa          	endbr64 
    6384:	68 35 00 00 00       	push   0x35
    6389:	f2 e9 91 fc ff ff    	bnd jmp 6020 <_init+0x20>
    638f:	90                   	nop
    6390:	f3 0f 1e fa          	endbr64 
    6394:	68 36 00 00 00       	push   0x36
    6399:	f2 e9 81 fc ff ff    	bnd jmp 6020 <_init+0x20>
    639f:	90                   	nop
    63a0:	f3 0f 1e fa          	endbr64 
    63a4:	68 37 00 00 00       	push   0x37
    63a9:	f2 e9 71 fc ff ff    	bnd jmp 6020 <_init+0x20>
    63af:	90                   	nop
    63b0:	f3 0f 1e fa          	endbr64 
    63b4:	68 38 00 00 00       	push   0x38
    63b9:	f2 e9 61 fc ff ff    	bnd jmp 6020 <_init+0x20>
    63bf:	90                   	nop
    63c0:	f3 0f 1e fa          	endbr64 
    63c4:	68 39 00 00 00       	push   0x39
    63c9:	f2 e9 51 fc ff ff    	bnd jmp 6020 <_init+0x20>
    63cf:	90                   	nop
    63d0:	f3 0f 1e fa          	endbr64 
    63d4:	68 3a 00 00 00       	push   0x3a
    63d9:	f2 e9 41 fc ff ff    	bnd jmp 6020 <_init+0x20>
    63df:	90                   	nop
    63e0:	f3 0f 1e fa          	endbr64 
    63e4:	68 3b 00 00 00       	push   0x3b
    63e9:	f2 e9 31 fc ff ff    	bnd jmp 6020 <_init+0x20>
    63ef:	90                   	nop
    63f0:	f3 0f 1e fa          	endbr64 
    63f4:	68 3c 00 00 00       	push   0x3c
    63f9:	f2 e9 21 fc ff ff    	bnd jmp 6020 <_init+0x20>
    63ff:	90                   	nop
    6400:	f3 0f 1e fa          	endbr64 
    6404:	68 3d 00 00 00       	push   0x3d
    6409:	f2 e9 11 fc ff ff    	bnd jmp 6020 <_init+0x20>
    640f:	90                   	nop
    6410:	f3 0f 1e fa          	endbr64 
    6414:	68 3e 00 00 00       	push   0x3e
    6419:	f2 e9 01 fc ff ff    	bnd jmp 6020 <_init+0x20>
    641f:	90                   	nop
    6420:	f3 0f 1e fa          	endbr64 
    6424:	68 3f 00 00 00       	push   0x3f
    6429:	f2 e9 f1 fb ff ff    	bnd jmp 6020 <_init+0x20>
    642f:	90                   	nop
    6430:	f3 0f 1e fa          	endbr64 
    6434:	68 40 00 00 00       	push   0x40
    6439:	f2 e9 e1 fb ff ff    	bnd jmp 6020 <_init+0x20>
    643f:	90                   	nop
    6440:	f3 0f 1e fa          	endbr64 
    6444:	68 41 00 00 00       	push   0x41
    6449:	f2 e9 d1 fb ff ff    	bnd jmp 6020 <_init+0x20>
    644f:	90                   	nop
    6450:	f3 0f 1e fa          	endbr64 
    6454:	68 42 00 00 00       	push   0x42
    6459:	f2 e9 c1 fb ff ff    	bnd jmp 6020 <_init+0x20>
    645f:	90                   	nop
    6460:	f3 0f 1e fa          	endbr64 
    6464:	68 43 00 00 00       	push   0x43
    6469:	f2 e9 b1 fb ff ff    	bnd jmp 6020 <_init+0x20>
    646f:	90                   	nop
    6470:	f3 0f 1e fa          	endbr64 
    6474:	68 44 00 00 00       	push   0x44
    6479:	f2 e9 a1 fb ff ff    	bnd jmp 6020 <_init+0x20>
    647f:	90                   	nop
    6480:	f3 0f 1e fa          	endbr64 
    6484:	68 45 00 00 00       	push   0x45
    6489:	f2 e9 91 fb ff ff    	bnd jmp 6020 <_init+0x20>
    648f:	90                   	nop
    6490:	f3 0f 1e fa          	endbr64 
    6494:	68 46 00 00 00       	push   0x46
    6499:	f2 e9 81 fb ff ff    	bnd jmp 6020 <_init+0x20>
    649f:	90                   	nop
    64a0:	f3 0f 1e fa          	endbr64 
    64a4:	68 47 00 00 00       	push   0x47
    64a9:	f2 e9 71 fb ff ff    	bnd jmp 6020 <_init+0x20>
    64af:	90                   	nop
    64b0:	f3 0f 1e fa          	endbr64 
    64b4:	68 48 00 00 00       	push   0x48
    64b9:	f2 e9 61 fb ff ff    	bnd jmp 6020 <_init+0x20>
    64bf:	90                   	nop
    64c0:	f3 0f 1e fa          	endbr64 
    64c4:	68 49 00 00 00       	push   0x49
    64c9:	f2 e9 51 fb ff ff    	bnd jmp 6020 <_init+0x20>
    64cf:	90                   	nop
    64d0:	f3 0f 1e fa          	endbr64 
    64d4:	68 4a 00 00 00       	push   0x4a
    64d9:	f2 e9 41 fb ff ff    	bnd jmp 6020 <_init+0x20>
    64df:	90                   	nop
    64e0:	f3 0f 1e fa          	endbr64 
    64e4:	68 4b 00 00 00       	push   0x4b
    64e9:	f2 e9 31 fb ff ff    	bnd jmp 6020 <_init+0x20>
    64ef:	90                   	nop
    64f0:	f3 0f 1e fa          	endbr64 
    64f4:	68 4c 00 00 00       	push   0x4c
    64f9:	f2 e9 21 fb ff ff    	bnd jmp 6020 <_init+0x20>
    64ff:	90                   	nop

Disassembly of section .plt.got:

0000000000006500 <__cxa_finalize@plt>:
    6500:	f3 0f 1e fa          	endbr64 
    6504:	f2 ff 25 95 8a 03 00 	bnd jmp QWORD PTR [rip+0x38a95]        # 3efa0 <__cxa_finalize@GLIBC_2.2.5>
    650b:	0f 1f 44 00 00       	nop    DWORD PTR [rax+rax*1+0x0]

0000000000006510 <_ZNSt6thread4joinEv@plt>:
    6510:	f3 0f 1e fa          	endbr64 
    6514:	f2 ff 25 b5 8a 03 00 	bnd jmp QWORD PTR [rip+0x38ab5]        # 3efd0 <_ZNSt6thread4joinEv@GLIBCXX_3.4.11>
    651b:	0f 1f 44 00 00       	nop    DWORD PTR [rax+rax*1+0x0]

Disassembly of section .plt.sec:

0000000000006520 <_Znam@plt>:
    6520:	f3 0f 1e fa          	endbr64 
    6524:	f2 ff 25 0d 88 03 00 	bnd jmp QWORD PTR [rip+0x3880d]        # 3ed38 <_Znam@GLIBCXX_3.4>
    652b:	0f 1f 44 00 00       	nop    DWORD PTR [rax+rax*1+0x0]

0000000000006530 <_ZNSt15__exception_ptr13exception_ptr9_M_addrefEv@plt>:
    6530:	f3 0f 1e fa          	endbr64 
    6534:	f2 ff 25 05 88 03 00 	bnd jmp QWORD PTR [rip+0x38805]        # 3ed40 <_ZNSt15__exception_ptr13exception_ptr9_M_addrefEv@CXXABI_1.3.13>
    653b:	0f 1f 44 00 00       	nop    DWORD PTR [rax+rax*1+0x0]

0000000000006540 <_ZSt29_Rb_tree_insert_and_rebalancebPSt18_Rb_tree_node_baseS0_RS_@plt>:
    6540:	f3 0f 1e fa          	endbr64 
    6544:	f2 ff 25 fd 87 03 00 	bnd jmp QWORD PTR [rip+0x387fd]        # 3ed48 <_ZSt29_Rb_tree_insert_and_rebalancebPSt18_Rb_tree_node_baseS0_RS_@GLIBCXX_3.4>
    654b:	0f 1f 44 00 00       	nop    DWORD PTR [rax+rax*1+0x0]

0000000000006550 <_ZNSaIcED2Ev@plt>:
    6550:	f3 0f 1e fa          	endbr64 
    6554:	f2 ff 25 f5 87 03 00 	bnd jmp QWORD PTR [rip+0x387f5]        # 3ed50 <_ZNSaIcED2Ev@GLIBCXX_3.4>
    655b:	0f 1f 44 00 00       	nop    DWORD PTR [rax+rax*1+0x0]

0000000000006560 <_ZSt20__throw_future_errori@plt>:
    6560:	f3 0f 1e fa          	endbr64 
    6564:	f2 ff 25 ed 87 03 00 	bnd jmp QWORD PTR [rip+0x387ed]        # 3ed58 <_ZSt20__throw_future_errori@GLIBCXX_3.4.14>
    656b:	0f 1f 44 00 00       	nop    DWORD PTR [rax+rax*1+0x0]

0000000000006570 <_ZNSt10filesystem7__cxx114pathdVERKS1_@plt>:
    6570:	f3 0f 1e fa          	endbr64 
    6574:	f2 ff 25 e5 87 03 00 	bnd jmp QWORD PTR [rip+0x387e5]        # 3ed60 <_ZNSt10filesystem7__cxx114pathdVERKS1_@GLIBCXX_3.4.26>
    657b:	0f 1f 44 00 00       	nop    DWORD PTR [rax+rax*1+0x0]

0000000000006580 <_ZNKSt10filesystem7__cxx114path5_List13_Impl_deleterclEPNS2_5_ImplE@plt>:
    6580:	f3 0f 1e fa          	endbr64 
    6584:	f2 ff 25 dd 87 03 00 	bnd jmp QWORD PTR [rip+0x387dd]        # 3ed68 <_ZNKSt10filesystem7__cxx114path5_List13_Impl_deleterclEPNS2_5_ImplE@GLIBCXX_3.4.26>
    658b:	0f 1f 44 00 00       	nop    DWORD PTR [rax+rax*1+0x0]

0000000000006590 <_ZNSt10filesystem7__cxx114path5_ListC1Ev@plt>:
    6590:	f3 0f 1e fa          	endbr64 
    6594:	f2 ff 25 d5 87 03 00 	bnd jmp QWORD PTR [rip+0x387d5]        # 3ed70 <_ZNSt10filesystem7__cxx114path5_ListC1Ev@GLIBCXX_3.4.26>
    659b:	0f 1f 44 00 00       	nop    DWORD PTR [rax+rax*1+0x0]

00000000000065a0 <_ZSt9terminatev@plt>:
    65a0:	f3 0f 1e fa          	endbr64 
    65a4:	f2 ff 25 cd 87 03 00 	bnd jmp QWORD PTR [rip+0x387cd]        # 3ed78 <_ZSt9terminatev@GLIBCXX_3.4>
    65ab:	0f 1f 44 00 00       	nop    DWORD PTR [rax+rax*1+0x0]

00000000000065b0 <_ZSt17__throw_bad_allocv@plt>:
    65b0:	f3 0f 1e fa          	endbr64 
    65b4:	f2 ff 25 c5 87 03 00 	bnd jmp QWORD PTR [rip+0x387c5]        # 3ed80 <_ZSt17__throw_bad_allocv@GLIBCXX_3.4>
    65bb:	0f 1f 44 00 00       	nop    DWORD PTR [rax+rax*1+0x0]

00000000000065c0 <_ZSt25__throw_bad_function_callv@plt>:
    65c0:	f3 0f 1e fa          	endbr64 
    65c4:	f2 ff 25 bd 87 03 00 	bnd jmp QWORD PTR [rip+0x387bd]        # 3ed88 <_ZSt25__throw_bad_function_callv@GLIBCXX_3.4.14>
    65cb:	0f 1f 44 00 00       	nop    DWORD PTR [rax+rax*1+0x0]

00000000000065d0 <__cxa_begin_catch@plt>:
    65d0:	f3 0f 1e fa          	endbr64 
    65d4:	f2 ff 25 b5 87 03 00 	bnd jmp QWORD PTR [rip+0x387b5]        # 3ed90 <__cxa_begin_catch@CXXABI_1.3>
    65db:	0f 1f 44 00 00       	nop    DWORD PTR [rax+rax*1+0x0]

00000000000065e0 <_ZNSt10filesystem16create_directoryERKNS_7__cxx114pathE@plt>:
    65e0:	f3 0f 1e fa          	endbr64 
    65e4:	f2 ff 25 ad 87 03 00 	bnd jmp QWORD PTR [rip+0x387ad]        # 3ed98 <_ZNSt10filesystem16create_directoryERKNS_7__cxx114pathE@GLIBCXX_3.4.26>
    65eb:	0f 1f 44 00 00       	nop    DWORD PTR [rax+rax*1+0x0]

00000000000065f0 <strlen@plt>:
    65f0:	f3 0f 1e fa          	endbr64 
    65f4:	f2 ff 25 a5 87 03 00 	bnd jmp QWORD PTR [rip+0x387a5]        # 3eda0 <strlen@GLIBC_2.2.5>
    65fb:	0f 1f 44 00 00       	nop    DWORD PTR [rax+rax*1+0x0]

0000000000006600 <memcmp@plt>:
    6600:	f3 0f 1e fa          	endbr64 
    6604:	f2 ff 25 9d 87 03 00 	bnd jmp QWORD PTR [rip+0x3879d]        # 3eda8 <memcmp@GLIBC_2.2.5>
    660b:	0f 1f 44 00 00       	nop    DWORD PTR [rax+rax*1+0x0]

0000000000006610 <_ZNSt6thread6_StateD2Ev@plt>:
    6610:	f3 0f 1e fa          	endbr64 
    6614:	f2 ff 25 95 87 03 00 	bnd jmp QWORD PTR [rip+0x38795]        # 3edb0 <_ZNSt6thread6_StateD2Ev@GLIBCXX_3.4.22>
    661b:	0f 1f 44 00 00       	nop    DWORD PTR [rax+rax*1+0x0]

0000000000006620 <__cxa_allocate_exception@plt>:
    6620:	f3 0f 1e fa          	endbr64 
    6624:	f2 ff 25 8d 87 03 00 	bnd jmp QWORD PTR [rip+0x3878d]        # 3edb8 <__cxa_allocate_exception@CXXABI_1.3>
    662b:	0f 1f 44 00 00       	nop    DWORD PTR [rax+rax*1+0x0]

0000000000006630 <_ZNSt3_V216generic_categoryEv@plt>:
    6630:	f3 0f 1e fa          	endbr64 
    6634:	f2 ff 25 85 87 03 00 	bnd jmp QWORD PTR [rip+0x38785]        # 3edc0 <_ZNSt3_V216generic_categoryEv@GLIBCXX_3.4.21>
    663b:	0f 1f 44 00 00       	nop    DWORD PTR [rax+rax*1+0x0]

0000000000006640 <_ZSt20__throw_length_errorPKc@plt>:
    6640:	f3 0f 1e fa          	endbr64 
    6644:	f2 ff 25 7d 87 03 00 	bnd jmp QWORD PTR [rip+0x3877d]        # 3edc8 <_ZSt20__throw_length_errorPKc@GLIBCXX_3.4>
    664b:	0f 1f 44 00 00       	nop    DWORD PTR [rax+rax*1+0x0]

0000000000006650 <memset@plt>:
    6650:	f3 0f 1e fa          	endbr64 
    6654:	f2 ff 25 75 87 03 00 	bnd jmp QWORD PTR [rip+0x38775]        # 3edd0 <memset@GLIBC_2.2.5>
    665b:	0f 1f 44 00 00       	nop    DWORD PTR [rax+rax*1+0x0]

0000000000006660 <_ZNSaIcEC1ERKS_@plt>:
    6660:	f3 0f 1e fa          	endbr64 
    6664:	f2 ff 25 6d 87 03 00 	bnd jmp QWORD PTR [rip+0x3876d]        # 3edd8 <_ZNSaIcEC1ERKS_@GLIBCXX_3.4>
    666b:	0f 1f 44 00 00       	nop    DWORD PTR [rax+rax*1+0x0]

0000000000006670 <_ZSt15future_categoryv@plt>:
    6670:	f3 0f 1e fa          	endbr64 
    6674:	f2 ff 25 65 87 03 00 	bnd jmp QWORD PTR [rip+0x38765]        # 3ede0 <_ZSt15future_categoryv@GLIBCXX_3.4.15>
    667b:	0f 1f 44 00 00       	nop    DWORD PTR [rax+rax*1+0x0]

0000000000006680 <_ZNSt13__future_base12_Result_baseC2Ev@plt>:
    6680:	f3 0f 1e fa          	endbr64 
    6684:	f2 ff 25 5d 87 03 00 	bnd jmp QWORD PTR [rip+0x3875d]        # 3ede8 <_ZNSt13__future_base12_Result_baseC2Ev@GLIBCXX_3.4.15>
    668b:	0f 1f 44 00 00       	nop    DWORD PTR [rax+rax*1+0x0]

0000000000006690 <_ZSt28_Rb_tree_rebalance_for_erasePSt18_Rb_tree_node_baseRS_@plt>:
    6690:	f3 0f 1e fa          	endbr64 
    6694:	f2 ff 25 55 87 03 00 	bnd jmp QWORD PTR [rip+0x38755]        # 3edf0 <_ZSt28_Rb_tree_rebalance_for_erasePSt18_Rb_tree_node_baseRS_@GLIBCXX_3.4>
    669b:	0f 1f 44 00 00       	nop    DWORD PTR [rax+rax*1+0x0]

00000000000066a0 <_ZNSirsERi@plt>:
    66a0:	f3 0f 1e fa          	endbr64 
    66a4:	f2 ff 25 4d 87 03 00 	bnd jmp QWORD PTR [rip+0x3874d]        # 3edf8 <_ZNSirsERi@GLIBCXX_3.4>
    66ab:	0f 1f 44 00 00       	nop    DWORD PTR [rax+rax*1+0x0]

00000000000066b0 <_ZSt20__throw_system_errori@plt>:
    66b0:	f3 0f 1e fa          	endbr64 
    66b4:	f2 ff 25 45 87 03 00 	bnd jmp QWORD PTR [rip+0x38745]        # 3ee00 <_ZSt20__throw_system_errori@GLIBCXX_3.4.11>
    66bb:	0f 1f 44 00 00       	nop    DWORD PTR [rax+rax*1+0x0]

00000000000066c0 <_ZSt18_Rb_tree_incrementPSt18_Rb_tree_node_base@plt>:
    66c0:	f3 0f 1e fa          	endbr64 
    66c4:	f2 ff 25 3d 87 03 00 	bnd jmp QWORD PTR [rip+0x3873d]        # 3ee08 <_ZSt18_Rb_tree_incrementPSt18_Rb_tree_node_base@GLIBCXX_3.4>
    66cb:	0f 1f 44 00 00       	nop    DWORD PTR [rax+rax*1+0x0]

00000000000066d0 <_ZSt19__throw_logic_errorPKc@plt>:
    66d0:	f3 0f 1e fa          	endbr64 
    66d4:	f2 ff 25 35 87 03 00 	bnd jmp QWORD PTR [rip+0x38735]        # 3ee10 <_ZSt19__throw_logic_errorPKc@GLIBCXX_3.4>
    66db:	0f 1f 44 00 00       	nop    DWORD PTR [rax+rax*1+0x0]

00000000000066e0 <_ZNSt13__future_base12_Result_baseD2Ev@plt>:
    66e0:	f3 0f 1e fa          	endbr64 
    66e4:	f2 ff 25 2d 87 03 00 	bnd jmp QWORD PTR [rip+0x3872d]        # 3ee18 <_ZNSt13__future_base12_Result_baseD2Ev@GLIBCXX_3.4.15>
    66eb:	0f 1f 44 00 00       	nop    DWORD PTR [rax+rax*1+0x0]

00000000000066f0 <_ZSt28__throw_bad_array_new_lengthv@plt>:
    66f0:	f3 0f 1e fa          	endbr64 
    66f4:	f2 ff 25 25 87 03 00 	bnd jmp QWORD PTR [rip+0x38725]        # 3ee20 <_ZSt28__throw_bad_array_new_lengthv@GLIBCXX_3.4.29>
    66fb:	0f 1f 44 00 00       	nop    DWORD PTR [rax+rax*1+0x0]

0000000000006700 <_ZNSt10filesystem7__cxx114path14_M_split_cmptsEv@plt>:
    6700:	f3 0f 1e fa          	endbr64 
    6704:	f2 ff 25 1d 87 03 00 	bnd jmp QWORD PTR [rip+0x3871d]        # 3ee28 <_ZNSt10filesystem7__cxx114path14_M_split_cmptsEv@GLIBCXX_3.4.26>
    670b:	0f 1f 44 00 00       	nop    DWORD PTR [rax+rax*1+0x0]

0000000000006710 <memcpy@plt>:
    6710:	f3 0f 1e fa          	endbr64 
    6714:	f2 ff 25 15 87 03 00 	bnd jmp QWORD PTR [rip+0x38715]        # 3ee30 <memcpy@GLIBC_2.14>
    671b:	0f 1f 44 00 00       	nop    DWORD PTR [rax+rax*1+0x0]

0000000000006720 <_ZNSt15__exception_ptr13exception_ptr10_M_releaseEv@plt>:
    6720:	f3 0f 1e fa          	endbr64 
    6724:	f2 ff 25 0d 87 03 00 	bnd jmp QWORD PTR [rip+0x3870d]        # 3ee38 <_ZNSt15__exception_ptr13exception_ptr10_M_releaseEv@CXXABI_1.3.13>
    672b:	0f 1f 44 00 00       	nop    DWORD PTR [rax+rax*1+0x0]

0000000000006730 <__cxa_atexit@plt>:
    6730:	f3 0f 1e fa          	endbr64 
    6734:	f2 ff 25 05 87 03 00 	bnd jmp QWORD PTR [rip+0x38705]        # 3ee40 <__cxa_atexit@GLIBC_2.2.5>
    673b:	0f 1f 44 00 00       	nop    DWORD PTR [rax+rax*1+0x0]

0000000000006740 <_ZStlsIcSt11char_traitsIcESaIcEERSt13basic_ostreamIT_T0_ES7_RKNSt7__cxx1112basic_stringIS4_S5_T1_EE@plt>:
    6740:	f3 0f 1e fa          	endbr64 
    6744:	f2 ff 25 fd 86 03 00 	bnd jmp QWORD PTR [rip+0x386fd]        # 3ee48 <_ZStlsIcSt11char_traitsIcESaIcEERSt13basic_ostreamIT_T0_ES7_RKNSt7__cxx1112basic_stringIS4_S5_T1_EE@GLIBCXX_3.4.21>
    674b:	0f 1f 44 00 00       	nop    DWORD PTR [rax+rax*1+0x0]

0000000000006750 <_ZNSt6thread15_M_start_threadESt10unique_ptrINS_6_StateESt14default_deleteIS1_EEPFvvE@plt>:
    6750:	f3 0f 1e fa          	endbr64 
    6754:	f2 ff 25 f5 86 03 00 	bnd jmp QWORD PTR [rip+0x386f5]        # 3ee50 <_ZNSt6thread15_M_start_threadESt10unique_ptrINS_6_StateESt14default_deleteIS1_EEPFvvE@GLIBCXX_3.4.22>
    675b:	0f 1f 44 00 00       	nop    DWORD PTR [rax+rax*1+0x0]

0000000000006760 <__cxa_init_primary_exception@plt>:
    6760:	f3 0f 1e fa          	endbr64 
    6764:	f2 ff 25 ed 86 03 00 	bnd jmp QWORD PTR [rip+0x386ed]        # 3ee58 <__cxa_init_primary_exception@CXXABI_1.3.11>
    676b:	0f 1f 44 00 00       	nop    DWORD PTR [rax+rax*1+0x0]

0000000000006770 <_ZNSt28__atomic_futex_unsigned_base19_M_futex_notify_allEPj@plt>:
    6770:	f3 0f 1e fa          	endbr64 
    6774:	f2 ff 25 e5 86 03 00 	bnd jmp QWORD PTR [rip+0x386e5]        # 3ee60 <_ZNSt28__atomic_futex_unsigned_base19_M_futex_notify_allEPj@GLIBCXX_3.4.21>
    677b:	0f 1f 44 00 00       	nop    DWORD PTR [rax+rax*1+0x0]

0000000000006780 <pthread_once@plt>:
    6780:	f3 0f 1e fa          	endbr64 
    6784:	f2 ff 25 dd 86 03 00 	bnd jmp QWORD PTR [rip+0x386dd]        # 3ee68 <pthread_once@GLIBC_2.34>
    678b:	0f 1f 44 00 00       	nop    DWORD PTR [rax+rax*1+0x0]

0000000000006790 <_ZNSt13random_device7_M_finiEv@plt>:
    6790:	f3 0f 1e fa          	endbr64 
    6794:	f2 ff 25 d5 86 03 00 	bnd jmp QWORD PTR [rip+0x386d5]        # 3ee70 <_ZNSt13random_device7_M_finiEv@GLIBCXX_3.4.18>
    679b:	0f 1f 44 00 00       	nop    DWORD PTR [rax+rax*1+0x0]

00000000000067a0 <_ZdlPv@plt>:
    67a0:	f3 0f 1e fa          	endbr64 
    67a4:	f2 ff 25 cd 86 03 00 	bnd jmp QWORD PTR [rip+0x386cd]        # 3ee78 <_ZdlPv@GLIBCXX_3.4>
    67ab:	0f 1f 44 00 00       	nop    DWORD PTR [rax+rax*1+0x0]

00000000000067b0 <_ZStlsISt11char_traitsIcEERSt13basic_ostreamIcT_ES5_PKc@plt>:
    67b0:	f3 0f 1e fa          	endbr64 
    67b4:	f2 ff 25 c5 86 03 00 	bnd jmp QWORD PTR [rip+0x386c5]        # 3ee80 <_ZStlsISt11char_traitsIcEERSt13basic_ostreamIcT_ES5_PKc@GLIBCXX_3.4>
    67bb:	0f 1f 44 00 00       	nop    DWORD PTR [rax+rax*1+0x0]

00000000000067c0 <_Znwm@plt>:
    67c0:	f3 0f 1e fa          	endbr64 
    67c4:	f2 ff 25 bd 86 03 00 	bnd jmp QWORD PTR [rip+0x386bd]        # 3ee88 <_Znwm@GLIBCXX_3.4>
    67cb:	0f 1f 44 00 00       	nop    DWORD PTR [rax+rax*1+0x0]

00000000000067d0 <_ZdlPvm@plt>:
    67d0:	f3 0f 1e fa          	endbr64 
    67d4:	f2 ff 25 b5 86 03 00 	bnd jmp QWORD PTR [rip+0x386b5]        # 3ee90 <_ZdlPvm@CXXABI_1.3.9>
    67db:	0f 1f 44 00 00       	nop    DWORD PTR [rax+rax*1+0x0]

00000000000067e0 <_ZSt17rethrow_exceptionNSt15__exception_ptr13exception_ptrE@plt>:
    67e0:	f3 0f 1e fa          	endbr64 
    67e4:	f2 ff 25 ad 86 03 00 	bnd jmp QWORD PTR [rip+0x386ad]        # 3ee98 <_ZSt17rethrow_exceptionNSt15__exception_ptr13exception_ptrE@CXXABI_1.3.3>
    67eb:	0f 1f 44 00 00       	nop    DWORD PTR [rax+rax*1+0x0]

00000000000067f0 <_ZSt18_Rb_tree_decrementPSt18_Rb_tree_node_base@plt>:
    67f0:	f3 0f 1e fa          	endbr64 
    67f4:	f2 ff 25 a5 86 03 00 	bnd jmp QWORD PTR [rip+0x386a5]        # 3eea0 <_ZSt18_Rb_tree_decrementPSt18_Rb_tree_node_base@GLIBCXX_3.4>
    67fb:	0f 1f 44 00 00       	nop    DWORD PTR [rax+rax*1+0x0]

0000000000006800 <_ZNSolsEPFRSoS_E@plt>:
    6800:	f3 0f 1e fa          	endbr64 
    6804:	f2 ff 25 9d 86 03 00 	bnd jmp QWORD PTR [rip+0x3869d]        # 3eea8 <_ZNSolsEPFRSoS_E@GLIBCXX_3.4>
    680b:	0f 1f 44 00 00       	nop    DWORD PTR [rax+rax*1+0x0]

0000000000006810 <_ZNSaIcED1Ev@plt>:
    6810:	f3 0f 1e fa          	endbr64 
    6814:	f2 ff 25 95 86 03 00 	bnd jmp QWORD PTR [rip+0x38695]        # 3eeb0 <_ZNSaIcED1Ev@GLIBCXX_3.4>
    681b:	0f 1f 44 00 00       	nop    DWORD PTR [rax+rax*1+0x0]

0000000000006820 <_ZNSt14basic_ofstreamIcSt11char_traitsIcEEC1EPKcSt13_Ios_Openmode@plt>:
    6820:	f3 0f 1e fa          	endbr64 
    6824:	f2 ff 25 8d 86 03 00 	bnd jmp QWORD PTR [rip+0x3868d]        # 3eeb8 <_ZNSt14basic_ofstreamIcSt11char_traitsIcEEC1EPKcSt13_Ios_Openmode@GLIBCXX_3.4>
    682b:	0f 1f 44 00 00       	nop    DWORD PTR [rax+rax*1+0x0]

0000000000006830 <_ZSt17current_exceptionv@plt>:
    6830:	f3 0f 1e fa          	endbr64 
    6834:	f2 ff 25 85 86 03 00 	bnd jmp QWORD PTR [rip+0x38685]        # 3eec0 <_ZSt17current_exceptionv@CXXABI_1.3.3>
    683b:	0f 1f 44 00 00       	nop    DWORD PTR [rax+rax*1+0x0]

0000000000006840 <__stack_chk_fail@plt>:
    6840:	f3 0f 1e fa          	endbr64 
    6844:	f2 ff 25 7d 86 03 00 	bnd jmp QWORD PTR [rip+0x3867d]        # 3eec8 <__stack_chk_fail@GLIBC_2.4>
    684b:	0f 1f 44 00 00       	nop    DWORD PTR [rax+rax*1+0x0]

0000000000006850 <__dynamic_cast@plt>:
    6850:	f3 0f 1e fa          	endbr64 
    6854:	f2 ff 25 75 86 03 00 	bnd jmp QWORD PTR [rip+0x38675]        # 3eed0 <__dynamic_cast@CXXABI_1.3>
    685b:	0f 1f 44 00 00       	nop    DWORD PTR [rax+rax*1+0x0]

0000000000006860 <_ZSt18_Rb_tree_incrementPKSt18_Rb_tree_node_base@plt>:
    6860:	f3 0f 1e fa          	endbr64 
    6864:	f2 ff 25 6d 86 03 00 	bnd jmp QWORD PTR [rip+0x3866d]        # 3eed8 <_ZSt18_Rb_tree_incrementPKSt18_Rb_tree_node_base@GLIBCXX_3.4>
    686b:	0f 1f 44 00 00       	nop    DWORD PTR [rax+rax*1+0x0]

0000000000006870 <_ZdaPv@plt>:
    6870:	f3 0f 1e fa          	endbr64 
    6874:	f2 ff 25 65 86 03 00 	bnd jmp QWORD PTR [rip+0x38665]        # 3eee0 <_ZdaPv@GLIBCXX_3.4>
    687b:	0f 1f 44 00 00       	nop    DWORD PTR [rax+rax*1+0x0]

0000000000006880 <_ZNSt15__exception_ptr13exception_ptrC1EPv@plt>:
    6880:	f3 0f 1e fa          	endbr64 
    6884:	f2 ff 25 5d 86 03 00 	bnd jmp QWORD PTR [rip+0x3865d]        # 3eee8 <_ZNSt15__exception_ptr13exception_ptrC1EPv@CXXABI_1.3.11>
    688b:	0f 1f 44 00 00       	nop    DWORD PTR [rax+rax*1+0x0]

0000000000006890 <_ZStrsIcSt11char_traitsIcEERSt13basic_istreamIT_T0_ES6_RS3_@plt>:
    6890:	f3 0f 1e fa          	endbr64 
    6894:	f2 ff 25 55 86 03 00 	bnd jmp QWORD PTR [rip+0x38655]        # 3eef0 <_ZStrsIcSt11char_traitsIcEERSt13basic_istreamIT_T0_ES6_RS3_@GLIBCXX_3.4>
    689b:	0f 1f 44 00 00       	nop    DWORD PTR [rax+rax*1+0x0]

00000000000068a0 <_ZNSt13random_device9_M_getvalEv@plt>:
    68a0:	f3 0f 1e fa          	endbr64 
    68a4:	f2 ff 25 4d 86 03 00 	bnd jmp QWORD PTR [rip+0x3864d]        # 3eef8 <_ZNSt13random_device9_M_getvalEv@GLIBCXX_3.4.18>
    68ab:	0f 1f 44 00 00       	nop    DWORD PTR [rax+rax*1+0x0]

00000000000068b0 <strcmp@plt>:
    68b0:	f3 0f 1e fa          	endbr64 
    68b4:	f2 ff 25 45 86 03 00 	bnd jmp QWORD PTR [rip+0x38645]        # 3ef00 <strcmp@GLIBC_2.2.5>
    68bb:	0f 1f 44 00 00       	nop    DWORD PTR [rax+rax*1+0x0]

00000000000068c0 <_ZNSt14basic_ofstreamIcSt11char_traitsIcEE5closeEv@plt>:
    68c0:	f3 0f 1e fa          	endbr64 
    68c4:	f2 ff 25 3d 86 03 00 	bnd jmp QWORD PTR [rip+0x3863d]        # 3ef08 <_ZNSt14basic_ofstreamIcSt11char_traitsIcEE5closeEv@GLIBCXX_3.4>
    68cb:	0f 1f 44 00 00       	nop    DWORD PTR [rax+rax*1+0x0]

00000000000068d0 <_ZNSaIcEC2ERKS_@plt>:
    68d0:	f3 0f 1e fa          	endbr64 
    68d4:	f2 ff 25 35 86 03 00 	bnd jmp QWORD PTR [rip+0x38635]        # 3ef10 <_ZNSaIcEC2ERKS_@GLIBCXX_3.4>
    68db:	0f 1f 44 00 00       	nop    DWORD PTR [rax+rax*1+0x0]

00000000000068e0 <_ZSt20__throw_out_of_rangePKc@plt>:
    68e0:	f3 0f 1e fa          	endbr64 
    68e4:	f2 ff 25 2d 86 03 00 	bnd jmp QWORD PTR [rip+0x3862d]        # 3ef18 <_ZSt20__throw_out_of_rangePKc@GLIBCXX_3.4>
    68eb:	0f 1f 44 00 00       	nop    DWORD PTR [rax+rax*1+0x0]

00000000000068f0 <__cxa_rethrow@plt>:
    68f0:	f3 0f 1e fa          	endbr64 
    68f4:	f2 ff 25 25 86 03 00 	bnd jmp QWORD PTR [rip+0x38625]        # 3ef20 <__cxa_rethrow@CXXABI_1.3>
    68fb:	0f 1f 44 00 00       	nop    DWORD PTR [rax+rax*1+0x0]

0000000000006900 <_ZNSt14basic_ofstreamIcSt11char_traitsIcEED1Ev@plt>:
    6900:	f3 0f 1e fa          	endbr64 
    6904:	f2 ff 25 1d 86 03 00 	bnd jmp QWORD PTR [rip+0x3861d]        # 3ef28 <_ZNSt14basic_ofstreamIcSt11char_traitsIcEED1Ev@GLIBCXX_3.4>
    690b:	0f 1f 44 00 00       	nop    DWORD PTR [rax+rax*1+0x0]

0000000000006910 <_ZSt24__throw_out_of_range_fmtPKcz@plt>:
    6910:	f3 0f 1e fa          	endbr64 
    6914:	f2 ff 25 15 86 03 00 	bnd jmp QWORD PTR [rip+0x38615]        # 3ef30 <_ZSt24__throw_out_of_range_fmtPKcz@GLIBCXX_3.4.20>
    691b:	0f 1f 44 00 00       	nop    DWORD PTR [rax+rax*1+0x0]

0000000000006920 <_ZNSt8ios_base4InitC1Ev@plt>:
    6920:	f3 0f 1e fa          	endbr64 
    6924:	f2 ff 25 0d 86 03 00 	bnd jmp QWORD PTR [rip+0x3860d]        # 3ef38 <_ZNSt8ios_base4InitC1Ev@GLIBCXX_3.4>
    692b:	0f 1f 44 00 00       	nop    DWORD PTR [rax+rax*1+0x0]

0000000000006930 <_ZNSt10filesystem12current_pathB5cxx11Ev@plt>:
    6930:	f3 0f 1e fa          	endbr64 
    6934:	f2 ff 25 05 86 03 00 	bnd jmp QWORD PTR [rip+0x38605]        # 3ef40 <_ZNSt10filesystem12current_pathB5cxx11Ev@GLIBCXX_3.4.26>
    693b:	0f 1f 44 00 00       	nop    DWORD PTR [rax+rax*1+0x0]

0000000000006940 <memmove@plt>:
    6940:	f3 0f 1e fa          	endbr64 
    6944:	f2 ff 25 fd 85 03 00 	bnd jmp QWORD PTR [rip+0x385fd]        # 3ef48 <memmove@GLIBC_2.2.5>
    694b:	0f 1f 44 00 00       	nop    DWORD PTR [rax+rax*1+0x0]

0000000000006950 <__cxa_end_catch@plt>:
    6950:	f3 0f 1e fa          	endbr64 
    6954:	f2 ff 25 f5 85 03 00 	bnd jmp QWORD PTR [rip+0x385f5]        # 3ef50 <__cxa_end_catch@CXXABI_1.3>
    695b:	0f 1f 44 00 00       	nop    DWORD PTR [rax+rax*1+0x0]

0000000000006960 <_ZNSt11logic_errorC2ERKS_@plt>:
    6960:	f3 0f 1e fa          	endbr64 
    6964:	f2 ff 25 ed 85 03 00 	bnd jmp QWORD PTR [rip+0x385ed]        # 3ef58 <_ZNSt11logic_errorC2ERKS_@GLIBCXX_3.4.21>
    696b:	0f 1f 44 00 00       	nop    DWORD PTR [rax+rax*1+0x0]

0000000000006970 <_ZNSt28__atomic_futex_unsigned_base19_M_futex_wait_untilEPjjbNSt6chrono8durationIlSt5ratioILl1ELl1EEEENS2_IlS3_ILl1ELl1000000000EEEE@plt>:
    6970:	f3 0f 1e fa          	endbr64 
    6974:	f2 ff 25 e5 85 03 00 	bnd jmp QWORD PTR [rip+0x385e5]        # 3ef60 <_ZNSt28__atomic_futex_unsigned_base19_M_futex_wait_untilEPjjbNSt6chrono8durationIlSt5ratioILl1ELl1EEEENS2_IlS3_ILl1ELl1000000000EEEE@GLIBCXX_3.4.21>
    697b:	0f 1f 44 00 00       	nop    DWORD PTR [rax+rax*1+0x0]

0000000000006980 <_ZNSt13random_device7_M_initERKNSt7__cxx1112basic_stringIcSt11char_traitsIcESaIcEEE@plt>:
    6980:	f3 0f 1e fa          	endbr64 
    6984:	f2 ff 25 dd 85 03 00 	bnd jmp QWORD PTR [rip+0x385dd]        # 3ef68 <_ZNSt13random_device7_M_initERKNSt7__cxx1112basic_stringIcSt11char_traitsIcESaIcEEE@GLIBCXX_3.4.21>
    698b:	0f 1f 44 00 00       	nop    DWORD PTR [rax+rax*1+0x0]

0000000000006990 <_ZNSolsEi@plt>:
    6990:	f3 0f 1e fa          	endbr64 
    6994:	f2 ff 25 d5 85 03 00 	bnd jmp QWORD PTR [rip+0x385d5]        # 3ef70 <_ZNSolsEi@GLIBCXX_3.4>
    699b:	0f 1f 44 00 00       	nop    DWORD PTR [rax+rax*1+0x0]

00000000000069a0 <_Unwind_Resume@plt>:
    69a0:	f3 0f 1e fa          	endbr64 
    69a4:	f2 ff 25 cd 85 03 00 	bnd jmp QWORD PTR [rip+0x385cd]        # 3ef78 <_Unwind_Resume@GCC_3.0>
    69ab:	0f 1f 44 00 00       	nop    DWORD PTR [rax+rax*1+0x0]

00000000000069b0 <_ZNSaIcEC1Ev@plt>:
    69b0:	f3 0f 1e fa          	endbr64 
    69b4:	f2 ff 25 c5 85 03 00 	bnd jmp QWORD PTR [rip+0x385c5]        # 3ef80 <_ZNSaIcEC1Ev@GLIBCXX_3.4>
    69bb:	0f 1f 44 00 00       	nop    DWORD PTR [rax+rax*1+0x0]

00000000000069c0 <_ZNSt12future_errorD1Ev@plt>:
    69c0:	f3 0f 1e fa          	endbr64 
    69c4:	f2 ff 25 bd 85 03 00 	bnd jmp QWORD PTR [rip+0x385bd]        # 3ef88 <_ZNSt12future_errorD1Ev@GLIBCXX_3.4.14>
    69cb:	0f 1f 44 00 00       	nop    DWORD PTR [rax+rax*1+0x0]

00000000000069d0 <_ZNSt10filesystem7__cxx114path5_ListC1ERKS2_@plt>:
    69d0:	f3 0f 1e fa          	endbr64 
    69d4:	f2 ff 25 b5 85 03 00 	bnd jmp QWORD PTR [rip+0x385b5]        # 3ef90 <_ZNSt10filesystem7__cxx114path5_ListC1ERKS2_@GLIBCXX_3.4.26>
    69db:	0f 1f 44 00 00       	nop    DWORD PTR [rax+rax*1+0x0]

00000000000069e0 <_ZNSt11logic_errorC2ERKNSt7__cxx1112basic_stringIcSt11char_traitsIcESaIcEEE@plt>:
    69e0:	f3 0f 1e fa          	endbr64 
    69e4:	f2 ff 25 ad 85 03 00 	bnd jmp QWORD PTR [rip+0x385ad]        # 3ef98 <_ZNSt11logic_errorC2ERKNSt7__cxx1112basic_stringIcSt11char_traitsIcESaIcEEE@GLIBCXX_3.4.21>
    69eb:	0f 1f 44 00 00       	nop    DWORD PTR [rax+rax*1+0x0]

Disassembly of section .text:

00000000000069f0 <_start>:
    69f0:	f3 0f 1e fa          	endbr64 
    69f4:	31 ed                	xor    ebp,ebp
    69f6:	49 89 d1             	mov    r9,rdx
    69f9:	5e                   	pop    rsi
    69fa:	48 89 e2             	mov    rdx,rsp
    69fd:	48 83 e4 f0          	and    rsp,0xfffffffffffffff0
    6a01:	50                   	push   rax
    6a02:	54                   	push   rsp
    6a03:	45 31 c0             	xor    r8d,r8d
    6a06:	31 c9                	xor    ecx,ecx
    6a08:	48 8d 3d d8 79 00 00 	lea    rdi,[rip+0x79d8]        # e3e7 <main>
    6a0f:	ff 15 9b 85 03 00    	call   QWORD PTR [rip+0x3859b]        # 3efb0 <__libc_start_main@GLIBC_2.34>
    6a15:	f4                   	hlt    
    6a16:	66 2e 0f 1f 84 00 00 	cs nop WORD PTR [rax+rax*1+0x0]
    6a1d:	00 00 00 

0000000000006a20 <deregister_tm_clones>:
    6a20:	48 8d 3d 01 86 03 00 	lea    rdi,[rip+0x38601]        # 3f028 <__TMC_END__>
    6a27:	48 8d 05 fa 85 03 00 	lea    rax,[rip+0x385fa]        # 3f028 <__TMC_END__>
    6a2e:	48 39 f8             	cmp    rax,rdi
    6a31:	74 15                	je     6a48 <deregister_tm_clones+0x28>
    6a33:	48 8b 05 9e 85 03 00 	mov    rax,QWORD PTR [rip+0x3859e]        # 3efd8 <_ITM_deregisterTMCloneTable@Base>
    6a3a:	48 85 c0             	test   rax,rax
    6a3d:	74 09                	je     6a48 <deregister_tm_clones+0x28>
    6a3f:	ff e0                	jmp    rax
    6a41:	0f 1f 80 00 00 00 00 	nop    DWORD PTR [rax+0x0]
    6a48:	c3                   	ret    
    6a49:	0f 1f 80 00 00 00 00 	nop    DWORD PTR [rax+0x0]

0000000000006a50 <register_tm_clones>:
    6a50:	48 8d 3d d1 85 03 00 	lea    rdi,[rip+0x385d1]        # 3f028 <__TMC_END__>
    6a57:	48 8d 35 ca 85 03 00 	lea    rsi,[rip+0x385ca]        # 3f028 <__TMC_END__>
    6a5e:	48 29 fe             	sub    rsi,rdi
    6a61:	48 89 f0             	mov    rax,rsi
    6a64:	48 c1 ee 3f          	shr    rsi,0x3f
    6a68:	48 c1 f8 03          	sar    rax,0x3
    6a6c:	48 01 c6             	add    rsi,rax
    6a6f:	48 d1 fe             	sar    rsi,1
    6a72:	74 14                	je     6a88 <register_tm_clones+0x38>
    6a74:	48 8b 05 6d 85 03 00 	mov    rax,QWORD PTR [rip+0x3856d]        # 3efe8 <_ITM_registerTMCloneTable@Base>
    6a7b:	48 85 c0             	test   rax,rax
    6a7e:	74 08                	je     6a88 <register_tm_clones+0x38>
    6a80:	ff e0                	jmp    rax
    6a82:	66 0f 1f 44 00 00    	nop    WORD PTR [rax+rax*1+0x0]
    6a88:	c3                   	ret    
    6a89:	0f 1f 80 00 00 00 00 	nop    DWORD PTR [rax+0x0]

0000000000006a90 <__do_global_dtors_aux>:
    6a90:	f3 0f 1e fa          	endbr64 
    6a94:	80 3d 1d 88 03 00 00 	cmp    BYTE PTR [rip+0x3881d],0x0        # 3f2b8 <completed.0>
    6a9b:	75 2b                	jne    6ac8 <__do_global_dtors_aux+0x38>
    6a9d:	55                   	push   rbp
    6a9e:	48 83 3d fa 84 03 00 	cmp    QWORD PTR [rip+0x384fa],0x0        # 3efa0 <__cxa_finalize@GLIBC_2.2.5>
    6aa5:	00 
    6aa6:	48 89 e5             	mov    rbp,rsp
    6aa9:	74 0c                	je     6ab7 <__do_global_dtors_aux+0x27>
    6aab:	48 8b 3d 56 85 03 00 	mov    rdi,QWORD PTR [rip+0x38556]        # 3f008 <__dso_handle>
    6ab2:	e8 49 fa ff ff       	call   6500 <__cxa_finalize@plt>
    6ab7:	e8 64 ff ff ff       	call   6a20 <deregister_tm_clones>
    6abc:	c6 05 f5 87 03 00 01 	mov    BYTE PTR [rip+0x387f5],0x1        # 3f2b8 <completed.0>
    6ac3:	5d                   	pop    rbp
    6ac4:	c3                   	ret    
    6ac5:	0f 1f 00             	nop    DWORD PTR [rax]
    6ac8:	c3                   	ret    
    6ac9:	0f 1f 80 00 00 00 00 	nop    DWORD PTR [rax+0x0]

0000000000006ad0 <frame_dummy>:
    6ad0:	f3 0f 1e fa          	endbr64 
    6ad4:	e9 77 ff ff ff       	jmp    6a50 <register_tm_clones>
    6ad9:	90                   	nop

0000000000006ada <_ZL18__gthread_active_pv>:
    6ada:	55                   	push   rbp
    6adb:	48 89 e5             	mov    rbp,rsp
    6ade:	b8 01 00 00 00       	mov    eax,0x1
    6ae3:	5d                   	pop    rbp
    6ae4:	c3                   	ret    

0000000000006ae5 <_ZL14__gthread_oncePiPFvvE>:
    6ae5:	55                   	push   rbp
    6ae6:	48 89 e5             	mov    rbp,rsp
    6ae9:	48 83 ec 10          	sub    rsp,0x10
    6aed:	48 89 7d f8          	mov    QWORD PTR [rbp-0x8],rdi
    6af1:	48 89 75 f0          	mov    QWORD PTR [rbp-0x10],rsi
    6af5:	e8 e0 ff ff ff       	call   6ada <_ZL18__gthread_active_pv>
    6afa:	85 c0                	test   eax,eax
    6afc:	0f 95 c0             	setne  al
    6aff:	84 c0                	test   al,al
    6b01:	74 15                	je     6b18 <_ZL14__gthread_oncePiPFvvE+0x33>
    6b03:	48 8b 55 f0          	mov    rdx,QWORD PTR [rbp-0x10]
    6b07:	48 8b 45 f8          	mov    rax,QWORD PTR [rbp-0x8]
    6b0b:	48 89 d6             	mov    rsi,rdx
    6b0e:	48 89 c7             	mov    rdi,rax
    6b11:	e8 6a fc ff ff       	call   6780 <pthread_once@plt>
    6b16:	eb 05                	jmp    6b1d <_ZL14__gthread_oncePiPFvvE+0x38>
    6b18:	b8 ff ff ff ff       	mov    eax,0xffffffff
    6b1d:	c9                   	leave  
    6b1e:	c3                   	ret    
    6b1f:	90                   	nop

0000000000006b20 <_ZN8Civilian3actEPZNKS_3actERKSt3mapIi12SmartPointerI6PlayerESt4lessIiESaISt4pairIKiS3_EEEiR6LoggeribE97_ZNK8Civilian3actERKSt3mapIi12SmartPointerI6PlayerESt4lessIiESaISt4pairIKiS3_EEEiR6Loggerib.Frame.actor>:
    6b20:	f3 0f 1e fa          	endbr64 
    6b24:	55                   	push   rbp
    6b25:	48 89 e5             	mov    rbp,rsp
    6b28:	53                   	push   rbx
    6b29:	48 83 ec 28          	sub    rsp,0x28
    6b2d:	48 89 7d d8          	mov    QWORD PTR [rbp-0x28],rdi
    6b31:	64 48 8b 04 25 28 00 	mov    rax,QWORD PTR fs:0x28
    6b38:	00 00 
    6b3a:	48 89 45 e8          	mov    QWORD PTR [rbp-0x18],rax
    6b3e:	31 c0                	xor    eax,eax
    6b40:	48 8b 45 d8          	mov    rax,QWORD PTR [rbp-0x28]
    6b44:	0f b7 40 46          	movzx  eax,WORD PTR [rax+0x46]
    6b48:	83 e0 01             	and    eax,0x1
    6b4b:	66 85 c0             	test   ax,ax
    6b4e:	74 2d                	je     6b7d <_ZN8Civilian3actEPZNKS_3actERKSt3mapIi12SmartPointerI6PlayerESt4lessIiESaISt4pairIKiS3_EEEiR6LoggeribE97_ZNK8Civilian3actERKSt3mapIi12SmartPointerI6PlayerESt4lessIiESaISt4pairIKiS3_EEEiR6Loggerib.Frame.actor+0x5d>
    6b50:	48 8b 45 d8          	mov    rax,QWORD PTR [rbp-0x28]
    6b54:	0f b7 40 46          	movzx  eax,WORD PTR [rax+0x46]
    6b58:	0f b7 c0             	movzx  eax,ax
    6b5b:	83 f8 05             	cmp    eax,0x5
    6b5e:	0f 84 48 01 00 00    	je     6cac <_ZN8Civilian3actEPZNKS_3actERKSt3mapIi12SmartPointerI6PlayerESt4lessIiESaISt4pairIKiS3_EEEiR6LoggeribE97_ZNK8Civilian3actERKSt3mapIi12SmartPointerI6PlayerESt4lessIiESaISt4pairIKiS3_EEEiR6Loggerib.Frame.actor+0x18c>
    6b64:	83 f8 05             	cmp    eax,0x5
    6b67:	7f 12                	jg     6b7b <_ZN8Civilian3actEPZNKS_3actERKSt3mapIi12SmartPointerI6PlayerESt4lessIiESaISt4pairIKiS3_EEEiR6LoggeribE97_ZNK8Civilian3actERKSt3mapIi12SmartPointerI6PlayerESt4lessIiESaISt4pairIKiS3_EEEiR6Loggerib.Frame.actor+0x5b>
    6b69:	83 f8 01             	cmp    eax,0x1
    6b6c:	0f 84 4e 01 00 00    	je     6cc0 <_ZN8Civilian3actEPZNKS_3actERKSt3mapIi12SmartPointerI6PlayerESt4lessIiESaISt4pairIKiS3_EEEiR6LoggeribE97_ZNK8Civilian3actERKSt3mapIi12SmartPointerI6PlayerESt4lessIiESaISt4pairIKiS3_EEEiR6Loggerib.Frame.actor+0x1a0>
    6b72:	83 f8 03             	cmp    eax,0x3
    6b75:	0f 84 a3 00 00 00    	je     6c1e <_ZN8Civilian3actEPZNKS_3actERKSt3mapIi12SmartPointerI6PlayerESt4lessIiESaISt4pairIKiS3_EEEiR6LoggeribE97_ZNK8Civilian3actERKSt3mapIi12SmartPointerI6PlayerESt4lessIiESaISt4pairIKiS3_EEEiR6Loggerib.Frame.actor+0xfe>
    6b7b:	0f 0b                	ud2    
    6b7d:	48 8b 45 d8          	mov    rax,QWORD PTR [rbp-0x28]
    6b81:	0f b7 40 46          	movzx  eax,WORD PTR [rax+0x46]
    6b85:	0f b7 c0             	movzx  eax,ax
    6b88:	83 f8 04             	cmp    eax,0x4
    6b8b:	0f 84 1d 01 00 00    	je     6cae <_ZN8Civilian3actEPZNKS_3actERKSt3mapIi12SmartPointerI6PlayerESt4lessIiESaISt4pairIKiS3_EEEiR6LoggeribE97_ZNK8Civilian3actERKSt3mapIi12SmartPointerI6PlayerESt4lessIiESaISt4pairIKiS3_EEEiR6Loggerib.Frame.actor+0x18e>
    6b91:	83 f8 04             	cmp    eax,0x4
    6b94:	7f 54                	jg     6bea <_ZN8Civilian3actEPZNKS_3actERKSt3mapIi12SmartPointerI6PlayerESt4lessIiESaISt4pairIKiS3_EEEiR6LoggeribE97_ZNK8Civilian3actERKSt3mapIi12SmartPointerI6PlayerESt4lessIiESaISt4pairIKiS3_EEEiR6Loggerib.Frame.actor+0xca>
    6b96:	85 c0                	test   eax,eax
    6b98:	74 0b                	je     6ba5 <_ZN8Civilian3actEPZNKS_3actERKSt3mapIi12SmartPointerI6PlayerESt4lessIiESaISt4pairIKiS3_EEEiR6LoggeribE97_ZNK8Civilian3actERKSt3mapIi12SmartPointerI6PlayerESt4lessIiESaISt4pairIKiS3_EEEiR6Loggerib.Frame.actor+0x85>
    6b9a:	83 f8 02             	cmp    eax,0x2
    6b9d:	0f 84 80 00 00 00    	je     6c23 <_ZN8Civilian3actEPZNKS_3actERKSt3mapIi12SmartPointerI6PlayerESt4lessIiESaISt4pairIKiS3_EEEiR6LoggeribE97_ZNK8Civilian3actERKSt3mapIi12SmartPointerI6PlayerESt4lessIiESaISt4pairIKiS3_EEEiR6Loggerib.Frame.actor+0x103>
    6ba3:	eb 45                	jmp    6bea <_ZN8Civilian3actEPZNKS_3actERKSt3mapIi12SmartPointerI6PlayerESt4lessIiESaISt4pairIKiS3_EEEiR6LoggeribE97_ZNK8Civilian3actERKSt3mapIi12SmartPointerI6PlayerESt4lessIiESaISt4pairIKiS3_EEEiR6Loggerib.Frame.actor+0xca>
    6ba5:	48 8b 5d d8          	mov    rbx,QWORD PTR [rbp-0x28]
    6ba9:	48 8b 45 d8          	mov    rax,QWORD PTR [rbp-0x28]
    6bad:	48 89 c7             	mov    rdi,rax
    6bb0:	e8 bb 63 01 00       	call   1cf70 <_ZNSt7__n486116coroutine_handleIN12PlayerAction12promise_typeEE12from_addressEPv>
    6bb5:	48 89 43 18          	mov    QWORD PTR [rbx+0x18],rax
    6bb9:	48 8b 45 d8          	mov    rax,QWORD PTR [rbp-0x28]
    6bbd:	c6 40 49 00          	mov    BYTE PTR [rax+0x49],0x0
    6bc1:	48 8b 45 d8          	mov    rax,QWORD PTR [rbp-0x28]
    6bc5:	48 83 c0 10          	add    rax,0x10
    6bc9:	48 89 c7             	mov    rdi,rax
    6bcc:	e8 f5 31 01 00       	call   19dc6 <_ZN12PlayerAction12promise_type15initial_suspendEv>
    6bd1:	48 8b 45 d8          	mov    rax,QWORD PTR [rbp-0x28]
    6bd5:	48 83 c0 4a          	add    rax,0x4a
    6bd9:	48 89 c7             	mov    rdi,rax
    6bdc:	e8 59 29 01 00       	call   1953a <_ZNKSt7__n486114suspend_always11await_readyEv>
    6be1:	83 f0 01             	xor    eax,0x1
    6be4:	84 c0                	test   al,al
    6be6:	75 04                	jne    6bec <_ZN8Civilian3actEPZNKS_3actERKSt3mapIi12SmartPointerI6PlayerESt4lessIiESaISt4pairIKiS3_EEEiR6LoggeribE97_ZNK8Civilian3actERKSt3mapIi12SmartPointerI6PlayerESt4lessIiESaISt4pairIKiS3_EEEiR6Loggerib.Frame.actor+0xcc>
    6be8:	eb 39                	jmp    6c23 <_ZN8Civilian3actEPZNKS_3actERKSt3mapIi12SmartPointerI6PlayerESt4lessIiESaISt4pairIKiS3_EEEiR6LoggeribE97_ZNK8Civilian3actERKSt3mapIi12SmartPointerI6PlayerESt4lessIiESaISt4pairIKiS3_EEEiR6Loggerib.Frame.actor+0x103>
    6bea:	0f 0b                	ud2    
    6bec:	48 8b 45 d8          	mov    rax,QWORD PTR [rbp-0x28]
    6bf0:	66 c7 40 46 02 00    	mov    WORD PTR [rax+0x46],0x2
    6bf6:	48 8b 45 d8          	mov    rax,QWORD PTR [rbp-0x28]
    6bfa:	48 8d 58 4a          	lea    rbx,[rax+0x4a]
    6bfe:	48 8b 45 d8          	mov    rax,QWORD PTR [rbp-0x28]
    6c02:	48 83 c0 18          	add    rax,0x18
    6c06:	48 89 c7             	mov    rdi,rax
    6c09:	e8 3c 63 01 00       	call   1cf4a <_ZNKSt7__n486116coroutine_handleIN12PlayerAction12promise_typeEEcvNS0_IvEEEv>
    6c0e:	48 89 c6             	mov    rsi,rax
    6c11:	48 89 df             	mov    rdi,rbx
    6c14:	e8 35 29 01 00       	call   1954e <_ZNKSt7__n486114suspend_always13await_suspendENS_16coroutine_handleIvEE>
    6c19:	e9 c0 00 00 00       	jmp    6cde <_ZN8Civilian3actEPZNKS_3actERKSt3mapIi12SmartPointerI6PlayerESt4lessIiESaISt4pairIKiS3_EEEiR6LoggeribE97_ZNK8Civilian3actERKSt3mapIi12SmartPointerI6PlayerESt4lessIiESaISt4pairIKiS3_EEEiR6Loggerib.Frame.actor+0x1be>
    6c1e:	e9 9e 00 00 00       	jmp    6cc1 <_ZN8Civilian3actEPZNKS_3actERKSt3mapIi12SmartPointerI6PlayerESt4lessIiESaISt4pairIKiS3_EEEiR6LoggeribE97_ZNK8Civilian3actERKSt3mapIi12SmartPointerI6PlayerESt4lessIiESaISt4pairIKiS3_EEEiR6Loggerib.Frame.actor+0x1a1>
    6c23:	48 8b 45 d8          	mov    rax,QWORD PTR [rbp-0x28]
    6c27:	c6 40 49 01          	mov    BYTE PTR [rax+0x49],0x1
    6c2b:	48 8b 45 d8          	mov    rax,QWORD PTR [rbp-0x28]
    6c2f:	48 83 c0 4a          	add    rax,0x4a
    6c33:	48 89 c7             	mov    rdi,rax
    6c36:	e8 27 29 01 00       	call   19562 <_ZNKSt7__n486114suspend_always12await_resumeEv>
    6c3b:	48 8b 45 d8          	mov    rax,QWORD PTR [rbp-0x28]
    6c3f:	48 83 c0 10          	add    rax,0x10
    6c43:	48 89 c7             	mov    rdi,rax
    6c46:	e8 9b 31 01 00       	call   19de6 <_ZN12PlayerAction12promise_type11return_voidEv>
    6c4b:	48 8b 45 d8          	mov    rax,QWORD PTR [rbp-0x28]
    6c4f:	48 c7 00 00 00 00 00 	mov    QWORD PTR [rax],0x0
    6c56:	48 8b 45 d8          	mov    rax,QWORD PTR [rbp-0x28]
    6c5a:	48 83 c0 10          	add    rax,0x10
    6c5e:	48 89 c7             	mov    rdi,rax
    6c61:	e8 70 31 01 00       	call   19dd6 <_ZN12PlayerAction12promise_type13final_suspendEv>
    6c66:	48 8b 45 d8          	mov    rax,QWORD PTR [rbp-0x28]
    6c6a:	48 83 c0 4b          	add    rax,0x4b
    6c6e:	48 89 c7             	mov    rdi,rax
    6c71:	e8 c4 28 01 00       	call   1953a <_ZNKSt7__n486114suspend_always11await_readyEv>
    6c76:	83 f0 01             	xor    eax,0x1
    6c79:	84 c0                	test   al,al
    6c7b:	74 31                	je     6cae <_ZN8Civilian3actEPZNKS_3actERKSt3mapIi12SmartPointerI6PlayerESt4lessIiESaISt4pairIKiS3_EEEiR6LoggeribE97_ZNK8Civilian3actERKSt3mapIi12SmartPointerI6PlayerESt4lessIiESaISt4pairIKiS3_EEEiR6Loggerib.Frame.actor+0x18e>
    6c7d:	48 8b 45 d8          	mov    rax,QWORD PTR [rbp-0x28]
    6c81:	66 c7 40 46 04 00    	mov    WORD PTR [rax+0x46],0x4
    6c87:	48 8b 45 d8          	mov    rax,QWORD PTR [rbp-0x28]
    6c8b:	48 8d 58 4b          	lea    rbx,[rax+0x4b]
    6c8f:	48 8b 45 d8          	mov    rax,QWORD PTR [rbp-0x28]
    6c93:	48 83 c0 18          	add    rax,0x18
    6c97:	48 89 c7             	mov    rdi,rax
    6c9a:	e8 ab 62 01 00       	call   1cf4a <_ZNKSt7__n486116coroutine_handleIN12PlayerAction12promise_typeEEcvNS0_IvEEEv>
    6c9f:	48 89 c6             	mov    rsi,rax
    6ca2:	48 89 df             	mov    rdi,rbx
    6ca5:	e8 a4 28 01 00       	call   1954e <_ZNKSt7__n486114suspend_always13await_suspendENS_16coroutine_handleIvEE>
    6caa:	eb 32                	jmp    6cde <_ZN8Civilian3actEPZNKS_3actERKSt3mapIi12SmartPointerI6PlayerESt4lessIiESaISt4pairIKiS3_EEEiR6LoggeribE97_ZNK8Civilian3actERKSt3mapIi12SmartPointerI6PlayerESt4lessIiESaISt4pairIKiS3_EEEiR6Loggerib.Frame.actor+0x1be>
    6cac:	eb 13                	jmp    6cc1 <_ZN8Civilian3actEPZNKS_3actERKSt3mapIi12SmartPointerI6PlayerESt4lessIiESaISt4pairIKiS3_EEEiR6LoggeribE97_ZNK8Civilian3actERKSt3mapIi12SmartPointerI6PlayerESt4lessIiESaISt4pairIKiS3_EEEiR6Loggerib.Frame.actor+0x1a1>
    6cae:	48 8b 45 d8          	mov    rax,QWORD PTR [rbp-0x28]
    6cb2:	48 83 c0 4b          	add    rax,0x4b
    6cb6:	48 89 c7             	mov    rdi,rax
    6cb9:	e8 a4 28 01 00       	call   19562 <_ZNKSt7__n486114suspend_always12await_resumeEv>
    6cbe:	eb 01                	jmp    6cc1 <_ZN8Civilian3actEPZNKS_3actERKSt3mapIi12SmartPointerI6PlayerESt4lessIiESaISt4pairIKiS3_EEEiR6LoggeribE97_ZNK8Civilian3actERKSt3mapIi12SmartPointerI6PlayerESt4lessIiESaISt4pairIKiS3_EEEiR6Loggerib.Frame.actor+0x1a1>
    6cc0:	90                   	nop
    6cc1:	48 8b 45 d8          	mov    rax,QWORD PTR [rbp-0x28]
    6cc5:	0f b6 40 48          	movzx  eax,BYTE PTR [rax+0x48]
    6cc9:	0f b6 c0             	movzx  eax,al
    6ccc:	85 c0                	test   eax,eax
    6cce:	74 12                	je     6ce2 <_ZN8Civilian3actEPZNKS_3actERKSt3mapIi12SmartPointerI6PlayerESt4lessIiESaISt4pairIKiS3_EEEiR6LoggeribE97_ZNK8Civilian3actERKSt3mapIi12SmartPointerI6PlayerESt4lessIiESaISt4pairIKiS3_EEEiR6Loggerib.Frame.actor+0x1c2>
    6cd0:	48 8b 45 d8          	mov    rax,QWORD PTR [rbp-0x28]
    6cd4:	48 89 c7             	mov    rdi,rax
    6cd7:	e8 c4 fa ff ff       	call   67a0 <_ZdlPv@plt>
    6cdc:	eb 04                	jmp    6ce2 <_ZN8Civilian3actEPZNKS_3actERKSt3mapIi12SmartPointerI6PlayerESt4lessIiESaISt4pairIKiS3_EEEiR6LoggeribE97_ZNK8Civilian3actERKSt3mapIi12SmartPointerI6PlayerESt4lessIiESaISt4pairIKiS3_EEEiR6Loggerib.Frame.actor+0x1c2>
    6cde:	f3 0f 1e fa          	endbr64 
    6ce2:	90                   	nop
    6ce3:	48 8b 45 e8          	mov    rax,QWORD PTR [rbp-0x18]
    6ce7:	64 48 2b 04 25 28 00 	sub    rax,QWORD PTR fs:0x28
    6cee:	00 00 
    6cf0:	74 05                	je     6cf7 <_ZN8Civilian3actEPZNKS_3actERKSt3mapIi12SmartPointerI6PlayerESt4lessIiESaISt4pairIKiS3_EEEiR6LoggeribE97_ZNK8Civilian3actERKSt3mapIi12SmartPointerI6PlayerESt4lessIiESaISt4pairIKiS3_EEEiR6Loggerib.Frame.actor+0x1d7>
    6cf2:	e8 49 fb ff ff       	call   6840 <__stack_chk_fail@plt>
    6cf7:	48 8b 5d f8          	mov    rbx,QWORD PTR [rbp-0x8]
    6cfb:	c9                   	leave  
    6cfc:	c3                   	ret    
    6cfd:	90                   	nop

0000000000006cfe <_ZN8Civilian3actEPZNKS_3actERKSt3mapIi12SmartPointerI6PlayerESt4lessIiESaISt4pairIKiS3_EEEiR6LoggeribE97_ZNK8Civilian3actERKSt3mapIi12SmartPointerI6PlayerESt4lessIiESaISt4pairIKiS3_EEEiR6Loggerib.Frame.destroy>:
    6cfe:	f3 0f 1e fa          	endbr64 
    6d02:	55                   	push   rbp
    6d03:	48 89 e5             	mov    rbp,rsp
    6d06:	48 83 ec 10          	sub    rsp,0x10
    6d0a:	48 89 7d f8          	mov    QWORD PTR [rbp-0x8],rdi
    6d0e:	48 8b 45 f8          	mov    rax,QWORD PTR [rbp-0x8]
    6d12:	0f b7 40 46          	movzx  eax,WORD PTR [rax+0x46]
    6d16:	83 c8 01             	or     eax,0x1
    6d19:	89 c2                	mov    edx,eax
    6d1b:	48 8b 45 f8          	mov    rax,QWORD PTR [rbp-0x8]
    6d1f:	66 89 50 46          	mov    WORD PTR [rax+0x46],dx
    6d23:	48 8b 45 f8          	mov    rax,QWORD PTR [rbp-0x8]
    6d27:	48 89 c7             	mov    rdi,rax
    6d2a:	e8 f1 fd ff ff       	call   6b20 <_ZN8Civilian3actEPZNKS_3actERKSt3mapIi12SmartPointerI6PlayerESt4lessIiESaISt4pairIKiS3_EEEiR6LoggeribE97_ZNK8Civilian3actERKSt3mapIi12SmartPointerI6PlayerESt4lessIiESaISt4pairIKiS3_EEEiR6Loggerib.Frame.actor>
    6d2f:	c9                   	leave  
    6d30:	c3                   	ret    
    6d31:	90                   	nop

0000000000006d32 <_ZN8Civilian4voteEPZNKS_4voteERKSt3mapIi12SmartPointerI6PlayerESt4lessIiESaISt4pairIKiS3_EEEiR6LoggeriE97_ZNK8Civilian4voteERKSt3mapIi12SmartPointerI6PlayerESt4lessIiESaISt4pairIKiS3_EEEiR6Loggeri.Frame.actor>:
    6d32:	f3 0f 1e fa          	endbr64 
    6d36:	55                   	push   rbp
    6d37:	48 89 e5             	mov    rbp,rsp
    6d3a:	53                   	push   rbx
    6d3b:	48 81 ec f8 00 00 00 	sub    rsp,0xf8
    6d42:	48 89 bd 08 ff ff ff 	mov    QWORD PTR [rbp-0xf8],rdi
    6d49:	64 48 8b 04 25 28 00 	mov    rax,QWORD PTR fs:0x28
    6d50:	00 00 
    6d52:	48 89 45 e8          	mov    QWORD PTR [rbp-0x18],rax
    6d56:	31 c0                	xor    eax,eax
    6d58:	48 8b 85 08 ff ff ff 	mov    rax,QWORD PTR [rbp-0xf8]
    6d5f:	0f b7 40 44          	movzx  eax,WORD PTR [rax+0x44]
    6d63:	83 e0 01             	and    eax,0x1
    6d66:	66 85 c0             	test   ax,ax
    6d69:	74 30                	je     6d9b <_ZN8Civilian4voteEPZNKS_4voteERKSt3mapIi12SmartPointerI6PlayerESt4lessIiESaISt4pairIKiS3_EEEiR6LoggeriE97_ZNK8Civilian4voteERKSt3mapIi12SmartPointerI6PlayerESt4lessIiESaISt4pairIKiS3_EEEiR6Loggeri.Frame.actor+0x69>
    6d6b:	48 8b 85 08 ff ff ff 	mov    rax,QWORD PTR [rbp-0xf8]
    6d72:	0f b7 40 44          	movzx  eax,WORD PTR [rax+0x44]
    6d76:	0f b7 c0             	movzx  eax,ax
    6d79:	83 f8 05             	cmp    eax,0x5
    6d7c:	0f 84 34 04 00 00    	je     71b6 <_ZN8Civilian4voteEPZNKS_4voteERKSt3mapIi12SmartPointerI6PlayerESt4lessIiESaISt4pairIKiS3_EEEiR6LoggeriE97_ZNK8Civilian4voteERKSt3mapIi12SmartPointerI6PlayerESt4lessIiESaISt4pairIKiS3_EEEiR6Loggeri.Frame.actor+0x484>
    6d82:	83 f8 05             	cmp    eax,0x5
    6d85:	7f 12                	jg     6d99 <_ZN8Civilian4voteEPZNKS_4voteERKSt3mapIi12SmartPointerI6PlayerESt4lessIiESaISt4pairIKiS3_EEEiR6LoggeriE97_ZNK8Civilian4voteERKSt3mapIi12SmartPointerI6PlayerESt4lessIiESaISt4pairIKiS3_EEEiR6Loggeri.Frame.actor+0x67>
    6d87:	83 f8 01             	cmp    eax,0x1
    6d8a:	0f 84 3f 04 00 00    	je     71cf <_ZN8Civilian4voteEPZNKS_4voteERKSt3mapIi12SmartPointerI6PlayerESt4lessIiESaISt4pairIKiS3_EEEiR6LoggeriE97_ZNK8Civilian4voteERKSt3mapIi12SmartPointerI6PlayerESt4lessIiESaISt4pairIKiS3_EEEiR6Loggeri.Frame.actor+0x49d>
    6d90:	83 f8 03             	cmp    eax,0x3
    6d93:	0f 84 be 00 00 00    	je     6e57 <_ZN8Civilian4voteEPZNKS_4voteERKSt3mapIi12SmartPointerI6PlayerESt4lessIiESaISt4pairIKiS3_EEEiR6LoggeriE97_ZNK8Civilian4voteERKSt3mapIi12SmartPointerI6PlayerESt4lessIiESaISt4pairIKiS3_EEEiR6Loggeri.Frame.actor+0x125>
    6d99:	0f 0b                	ud2    
    6d9b:	48 8b 85 08 ff ff ff 	mov    rax,QWORD PTR [rbp-0xf8]
    6da2:	0f b7 40 44          	movzx  eax,WORD PTR [rax+0x44]
    6da6:	0f b7 c0             	movzx  eax,ax
    6da9:	83 f8 04             	cmp    eax,0x4
    6dac:	0f 84 06 04 00 00    	je     71b8 <_ZN8Civilian4voteEPZNKS_4voteERKSt3mapIi12SmartPointerI6PlayerESt4lessIiESaISt4pairIKiS3_EEEiR6LoggeriE97_ZNK8Civilian4voteERKSt3mapIi12SmartPointerI6PlayerESt4lessIiESaISt4pairIKiS3_EEEiR6Loggeri.Frame.actor+0x486>
    6db2:	83 f8 04             	cmp    eax,0x4
    6db5:	7f 63                	jg     6e1a <_ZN8Civilian4voteEPZNKS_4voteERKSt3mapIi12SmartPointerI6PlayerESt4lessIiESaISt4pairIKiS3_EEEiR6LoggeriE97_ZNK8Civilian4voteERKSt3mapIi12SmartPointerI6PlayerESt4lessIiESaISt4pairIKiS3_EEEiR6Loggeri.Frame.actor+0xe8>
    6db7:	85 c0                	test   eax,eax
    6db9:	74 0b                	je     6dc6 <_ZN8Civilian4voteEPZNKS_4voteERKSt3mapIi12SmartPointerI6PlayerESt4lessIiESaISt4pairIKiS3_EEEiR6LoggeriE97_ZNK8Civilian4voteERKSt3mapIi12SmartPointerI6PlayerESt4lessIiESaISt4pairIKiS3_EEEiR6Loggeri.Frame.actor+0x94>
    6dbb:	83 f8 02             	cmp    eax,0x2
    6dbe:	0f 84 98 00 00 00    	je     6e5c <_ZN8Civilian4voteEPZNKS_4voteERKSt3mapIi12SmartPointerI6PlayerESt4lessIiESaISt4pairIKiS3_EEEiR6LoggeriE97_ZNK8Civilian4voteERKSt3mapIi12SmartPointerI6PlayerESt4lessIiESaISt4pairIKiS3_EEEiR6Loggeri.Frame.actor+0x12a>
    6dc4:	eb 54                	jmp    6e1a <_ZN8Civilian4voteEPZNKS_4voteERKSt3mapIi12SmartPointerI6PlayerESt4lessIiESaISt4pairIKiS3_EEEiR6LoggeriE97_ZNK8Civilian4voteERKSt3mapIi12SmartPointerI6PlayerESt4lessIiESaISt4pairIKiS3_EEEiR6Loggeri.Frame.actor+0xe8>
    6dc6:	48 8b 9d 08 ff ff ff 	mov    rbx,QWORD PTR [rbp-0xf8]
    6dcd:	48 8b 85 08 ff ff ff 	mov    rax,QWORD PTR [rbp-0xf8]
    6dd4:	48 89 c7             	mov    rdi,rax
    6dd7:	e8 94 61 01 00       	call   1cf70 <_ZNSt7__n486116coroutine_handleIN12PlayerAction12promise_typeEE12from_addressEPv>
    6ddc:	48 89 43 18          	mov    QWORD PTR [rbx+0x18],rax
    6de0:	48 8b 85 08 ff ff ff 	mov    rax,QWORD PTR [rbp-0xf8]
    6de7:	c6 40 47 00          	mov    BYTE PTR [rax+0x47],0x0
    6deb:	48 8b 85 08 ff ff ff 	mov    rax,QWORD PTR [rbp-0xf8]
    6df2:	48 83 c0 10          	add    rax,0x10
    6df6:	48 89 c7             	mov    rdi,rax
    6df9:	e8 c8 2f 01 00       	call   19dc6 <_ZN12PlayerAction12promise_type15initial_suspendEv>
    6dfe:	48 8b 85 08 ff ff ff 	mov    rax,QWORD PTR [rbp-0xf8]
    6e05:	48 83 c0 48          	add    rax,0x48
    6e09:	48 89 c7             	mov    rdi,rax
    6e0c:	e8 29 27 01 00       	call   1953a <_ZNKSt7__n486114suspend_always11await_readyEv>
    6e11:	83 f0 01             	xor    eax,0x1
    6e14:	84 c0                	test   al,al
    6e16:	75 04                	jne    6e1c <_ZN8Civilian4voteEPZNKS_4voteERKSt3mapIi12SmartPointerI6PlayerESt4lessIiESaISt4pairIKiS3_EEEiR6LoggeriE97_ZNK8Civilian4voteERKSt3mapIi12SmartPointerI6PlayerESt4lessIiESaISt4pairIKiS3_EEEiR6Loggeri.Frame.actor+0xea>
    6e18:	eb 42                	jmp    6e5c <_ZN8Civilian4voteEPZNKS_4voteERKSt3mapIi12SmartPointerI6PlayerESt4lessIiESaISt4pairIKiS3_EEEiR6LoggeriE97_ZNK8Civilian4voteERKSt3mapIi12SmartPointerI6PlayerESt4lessIiESaISt4pairIKiS3_EEEiR6Loggeri.Frame.actor+0x12a>
    6e1a:	0f 0b                	ud2    
    6e1c:	48 8b 85 08 ff ff ff 	mov    rax,QWORD PTR [rbp-0xf8]
    6e23:	66 c7 40 44 02 00    	mov    WORD PTR [rax+0x44],0x2
    6e29:	48 8b 85 08 ff ff ff 	mov    rax,QWORD PTR [rbp-0xf8]
    6e30:	48 8d 58 48          	lea    rbx,[rax+0x48]
    6e34:	48 8b 85 08 ff ff ff 	mov    rax,QWORD PTR [rbp-0xf8]
    6e3b:	48 83 c0 18          	add    rax,0x18
    6e3f:	48 89 c7             	mov    rdi,rax
    6e42:	e8 03 61 01 00       	call   1cf4a <_ZNKSt7__n486116coroutine_handleIN12PlayerAction12promise_typeEEcvNS0_IvEEEv>
    6e47:	48 89 c6             	mov    rsi,rax
    6e4a:	48 89 df             	mov    rdi,rbx
    6e4d:	e8 fc 26 01 00       	call   1954e <_ZNKSt7__n486114suspend_always13await_suspendENS_16coroutine_handleIvEE>
    6e52:	e9 a3 03 00 00       	jmp    71fa <_ZN8Civilian4voteEPZNKS_4voteERKSt3mapIi12SmartPointerI6PlayerESt4lessIiESaISt4pairIKiS3_EEEiR6LoggeriE97_ZNK8Civilian4voteERKSt3mapIi12SmartPointerI6PlayerESt4lessIiESaISt4pairIKiS3_EEEiR6Loggeri.Frame.actor+0x4c8>
    6e57:	e9 74 03 00 00       	jmp    71d0 <_ZN8Civilian4voteEPZNKS_4voteERKSt3mapIi12SmartPointerI6PlayerESt4lessIiESaISt4pairIKiS3_EEEiR6LoggeriE97_ZNK8Civilian4voteERKSt3mapIi12SmartPointerI6PlayerESt4lessIiESaISt4pairIKiS3_EEEiR6Loggeri.Frame.actor+0x49e>
    6e5c:	48 8b 85 08 ff ff ff 	mov    rax,QWORD PTR [rbp-0xf8]
    6e63:	c6 40 47 01          	mov    BYTE PTR [rax+0x47],0x1
    6e67:	48 8b 85 08 ff ff ff 	mov    rax,QWORD PTR [rbp-0xf8]
    6e6e:	48 83 c0 48          	add    rax,0x48
    6e72:	48 89 c7             	mov    rdi,rax
    6e75:	e8 e8 26 01 00       	call   19562 <_ZNKSt7__n486114suspend_always12await_resumeEv>
    6e7a:	48 8b 85 08 ff ff ff 	mov    rax,QWORD PTR [rbp-0xf8]
    6e81:	c7 40 4c ff ff ff ff 	mov    DWORD PTR [rax+0x4c],0xffffffff
    6e88:	48 8b 85 08 ff ff ff 	mov    rax,QWORD PTR [rbp-0xf8]
    6e8f:	48 83 c0 50          	add    rax,0x50
    6e93:	48 89 c7             	mov    rdi,rax
    6e96:	e8 71 31 01 00       	call   1a00c <_ZNSt6vectorIiSaIiEEC1Ev>
    6e9b:	48 8b 85 08 ff ff ff 	mov    rax,QWORD PTR [rbp-0xf8]
    6ea2:	48 8b 50 28          	mov    rdx,QWORD PTR [rax+0x28]
    6ea6:	48 8b 85 08 ff ff ff 	mov    rax,QWORD PTR [rbp-0xf8]
    6ead:	48 89 90 80 00 00 00 	mov    QWORD PTR [rax+0x80],rdx
    6eb4:	48 8b 85 08 ff ff ff 	mov    rax,QWORD PTR [rbp-0xf8]
    6ebb:	48 8b 80 80 00 00 00 	mov    rax,QWORD PTR [rax+0x80]
    6ec2:	48 8b 9d 08 ff ff ff 	mov    rbx,QWORD PTR [rbp-0xf8]
    6ec9:	48 89 c7             	mov    rdi,rax
    6ecc:	e8 bf 61 01 00       	call   1d090 <_ZNKSt3mapIi12SmartPointerI6PlayerESt4lessIiESaISt4pairIKiS2_EEE5beginEv>
    6ed1:	48 89 83 88 00 00 00 	mov    QWORD PTR [rbx+0x88],rax
    6ed8:	48 8b 85 08 ff ff ff 	mov    rax,QWORD PTR [rbp-0xf8]
    6edf:	48 8b 80 80 00 00 00 	mov    rax,QWORD PTR [rax+0x80]
    6ee6:	48 8b 9d 08 ff ff ff 	mov    rbx,QWORD PTR [rbp-0xf8]
    6eed:	48 89 c7             	mov    rdi,rax
    6ef0:	e8 b9 61 01 00       	call   1d0ae <_ZNKSt3mapIi12SmartPointerI6PlayerESt4lessIiESaISt4pairIKiS2_EEE3endEv>
    6ef5:	48 89 83 90 00 00 00 	mov    QWORD PTR [rbx+0x90],rax
    6efc:	e9 92 00 00 00       	jmp    6f93 <_ZN8Civilian4voteEPZNKS_4voteERKSt3mapIi12SmartPointerI6PlayerESt4lessIiESaISt4pairIKiS3_EEEiR6LoggeriE97_ZNK8Civilian4voteERKSt3mapIi12SmartPointerI6PlayerESt4lessIiESaISt4pairIKiS3_EEEiR6Loggeri.Frame.actor+0x261>
    6f01:	48 8b 85 08 ff ff ff 	mov    rax,QWORD PTR [rbp-0xf8]
    6f08:	48 05 88 00 00 00    	add    rax,0x88
    6f0e:	48 89 c7             	mov    rdi,rax
    6f11:	e8 08 62 01 00       	call   1d11e <_ZNKSt23_Rb_tree_const_iteratorISt4pairIKi12SmartPointerI6PlayerEEEdeEv>
    6f16:	48 8b 95 08 ff ff ff 	mov    rdx,QWORD PTR [rbp-0xf8]
    6f1d:	48 89 42 68          	mov    QWORD PTR [rdx+0x68],rax
    6f21:	48 8b 85 08 ff ff ff 	mov    rax,QWORD PTR [rbp-0xf8]
    6f28:	48 8b 40 68          	mov    rax,QWORD PTR [rax+0x68]
    6f2c:	48 89 c7             	mov    rdi,rax
    6f2f:	e8 f7 30 01 00       	call   1a02b <_ZSt3getILm0EKi12SmartPointerI6PlayerEERKNSt13tuple_elementIXT_ESt4pairIT0_T1_EE4typeERKS8_>
    6f34:	48 8b 95 08 ff ff ff 	mov    rdx,QWORD PTR [rbp-0xf8]
    6f3b:	48 89 42 70          	mov    QWORD PTR [rdx+0x70],rax
    6f3f:	48 8b 85 08 ff ff ff 	mov    rax,QWORD PTR [rbp-0xf8]
    6f46:	48 8b 40 68          	mov    rax,QWORD PTR [rax+0x68]
    6f4a:	48 89 c7             	mov    rdi,rax
    6f4d:	e8 f7 30 01 00       	call   1a049 <_ZSt3getILm1EKi12SmartPointerI6PlayerEERKNSt13tuple_elementIXT_ESt4pairIT0_T1_EE4typeERKS8_>
    6f52:	48 8b 95 08 ff ff ff 	mov    rdx,QWORD PTR [rbp-0xf8]
    6f59:	48 89 42 78          	mov    QWORD PTR [rdx+0x78],rax
    6f5d:	48 8b 85 08 ff ff ff 	mov    rax,QWORD PTR [rbp-0xf8]
    6f64:	48 8d 50 50          	lea    rdx,[rax+0x50]
    6f68:	48 8b 85 08 ff ff ff 	mov    rax,QWORD PTR [rbp-0xf8]
    6f6f:	48 8b 40 70          	mov    rax,QWORD PTR [rax+0x70]
    6f73:	48 89 c6             	mov    rsi,rax
    6f76:	48 89 d7             	mov    rdi,rdx
    6f79:	e8 ea 61 01 00       	call   1d168 <_ZNSt6vectorIiSaIiEE9push_backERKi>
    6f7e:	48 8b 85 08 ff ff ff 	mov    rax,QWORD PTR [rbp-0xf8]
    6f85:	48 05 88 00 00 00    	add    rax,0x88
    6f8b:	48 89 c7             	mov    rdi,rax
    6f8e:	e8 5f 61 01 00       	call   1d0f2 <_ZNSt23_Rb_tree_const_iteratorISt4pairIKi12SmartPointerI6PlayerEEEppEv>
    6f93:	48 8b 85 08 ff ff ff 	mov    rax,QWORD PTR [rbp-0xf8]
    6f9a:	48 8d 90 90 00 00 00 	lea    rdx,[rax+0x90]
    6fa1:	48 8b 85 08 ff ff ff 	mov    rax,QWORD PTR [rbp-0xf8]
    6fa8:	48 05 88 00 00 00    	add    rax,0x88
    6fae:	48 89 d6             	mov    rsi,rdx
    6fb1:	48 89 c7             	mov    rdi,rax
    6fb4:	e8 13 61 01 00       	call   1d0cc <_ZSteqRKSt23_Rb_tree_const_iteratorISt4pairIKi12SmartPointerI6PlayerEEES8_>
    6fb9:	83 f0 01             	xor    eax,0x1
    6fbc:	84 c0                	test   al,al
    6fbe:	0f 85 3d ff ff ff    	jne    6f01 <_ZN8Civilian4voteEPZNKS_4voteERKSt3mapIi12SmartPointerI6PlayerESt4lessIiESaISt4pairIKiS3_EEEiR6LoggeriE97_ZNK8Civilian4voteERKSt3mapIi12SmartPointerI6PlayerESt4lessIiESaISt4pairIKiS3_EEEiR6Loggeri.Frame.actor+0x1cf>
    6fc4:	48 8b 85 08 ff ff ff 	mov    rax,QWORD PTR [rbp-0xf8]
    6fcb:	48 83 c0 50          	add    rax,0x50
    6fcf:	48 89 c7             	mov    rdi,rax
    6fd2:	e8 10 62 01 00       	call   1d1e7 <_Z13choose_randomIiET_RKSt6vectorIS0_SaIS0_EE>
    6fd7:	48 8b 95 08 ff ff ff 	mov    rdx,QWORD PTR [rbp-0xf8]
    6fde:	89 42 4c             	mov    DWORD PTR [rdx+0x4c],eax
    6fe1:	48 8b 85 08 ff ff ff 	mov    rax,QWORD PTR [rbp-0xf8]
    6fe8:	48 8b 40 20          	mov    rax,QWORD PTR [rax+0x20]
    6fec:	48 8b 95 08 ff ff ff 	mov    rdx,QWORD PTR [rbp-0xf8]
    6ff3:	8b 52 4c             	mov    edx,DWORD PTR [rdx+0x4c]
    6ff6:	89 50 10             	mov    DWORD PTR [rax+0x10],edx
    6ff9:	48 8b 85 08 ff ff ff 	mov    rax,QWORD PTR [rbp-0xf8]
    7000:	48 8b 58 38          	mov    rbx,QWORD PTR [rax+0x38]
    7004:	48 8b 85 08 ff ff ff 	mov    rax,QWORD PTR [rbp-0xf8]
    700b:	48 8b 40 20          	mov    rax,QWORD PTR [rax+0x20]
    700f:	8b 50 10             	mov    edx,DWORD PTR [rax+0x10]
    7012:	48 8d 45 80          	lea    rax,[rbp-0x80]
    7016:	89 d6                	mov    esi,edx
    7018:	48 89 c7             	mov    rdi,rax
    701b:	e8 a1 13 01 00       	call   183c1 <_ZNSt7__cxx119to_stringEi>
    7020:	48 8b 85 08 ff ff ff 	mov    rax,QWORD PTR [rbp-0xf8]
    7027:	8b 50 30             	mov    edx,DWORD PTR [rax+0x30]
    702a:	48 8d 85 20 ff ff ff 	lea    rax,[rbp-0xe0]
    7031:	89 d6                	mov    esi,edx
    7033:	48 89 c7             	mov    rdi,rax
    7036:	e8 86 13 01 00       	call   183c1 <_ZNSt7__cxx119to_stringEi>
    703b:	48 8d 85 40 ff ff ff 	lea    rax,[rbp-0xc0]
    7042:	48 8d 95 20 ff ff ff 	lea    rdx,[rbp-0xe0]
    7049:	48 8d 0d 30 30 02 00 	lea    rcx,[rip+0x23030]        # 2a080 <_ZN9__gnu_cxxL21__default_lock_policyE+0x40>
    7050:	48 89 ce             	mov    rsi,rcx
    7053:	48 89 c7             	mov    rdi,rax
    7056:	e8 78 48 01 00       	call   1b8d3 <_ZStplIcSt11char_traitsIcESaIcEENSt7__cxx1112basic_stringIT_T0_T1_EEPKS5_OS8_>
    705b:	48 8d 85 60 ff ff ff 	lea    rax,[rbp-0xa0]
    7062:	48 8d 8d 40 ff ff ff 	lea    rcx,[rbp-0xc0]
    7069:	48 8d 15 1e 30 02 00 	lea    rdx,[rip+0x2301e]        # 2a08e <_ZN9__gnu_cxxL21__default_lock_policyE+0x4e>
    7070:	48 89 ce             	mov    rsi,rcx
    7073:	48 89 c7             	mov    rdi,rax
    7076:	e8 7a 5c 01 00       	call   1ccf5 <_ZStplIcSt11char_traitsIcESaIcEENSt7__cxx1112basic_stringIT_T0_T1_EEOS8_PKS5_>
    707b:	48 8d 45 a0          	lea    rax,[rbp-0x60]
    707f:	48 8d 55 80          	lea    rdx,[rbp-0x80]
    7083:	48 8d 8d 60 ff ff ff 	lea    rcx,[rbp-0xa0]
    708a:	48 89 ce             	mov    rsi,rcx
    708d:	48 89 c7             	mov    rdi,rax
    7090:	e8 55 47 01 00       	call   1b7ea <_ZStplIcSt11char_traitsIcESaIcEENSt7__cxx1112basic_stringIT_T0_T1_EEOS8_S9_>
    7095:	48 8d 45 c0          	lea    rax,[rbp-0x40]
    7099:	48 8d 4d a0          	lea    rcx,[rbp-0x60]
    709d:	48 8d 15 06 30 02 00 	lea    rdx,[rip+0x23006]        # 2a0aa <_ZN9__gnu_cxxL21__default_lock_policyE+0x6a>
    70a4:	48 89 ce             	mov    rsi,rcx
    70a7:	48 89 c7             	mov    rdi,rax
    70aa:	e8 46 5c 01 00       	call   1ccf5 <_ZStplIcSt11char_traitsIcESaIcEENSt7__cxx1112basic_stringIT_T0_T1_EEOS8_PKS5_>
    70af:	48 8b 85 08 ff ff ff 	mov    rax,QWORD PTR [rbp-0xf8]
    70b6:	8b 40 40             	mov    eax,DWORD PTR [rax+0x40]
    70b9:	48 8d 55 c0          	lea    rdx,[rbp-0x40]
    70bd:	89 c6                	mov    esi,eax
    70bf:	48 89 df             	mov    rdi,rbx
    70c2:	e8 25 29 01 00       	call   199ec <_ZN6Logger8logRoundEiRKNSt7__cxx1112basic_stringIcSt11char_traitsIcESaIcEEE>
    70c7:	48 8d 45 c0          	lea    rax,[rbp-0x40]
    70cb:	48 89 c7             	mov    rdi,rax
    70ce:	e8 13 44 01 00       	call   1b4e6 <_ZNSt7__cxx1112basic_stringIcSt11char_traitsIcESaIcEED1Ev>
    70d3:	48 8d 45 a0          	lea    rax,[rbp-0x60]
    70d7:	48 89 c7             	mov    rdi,rax
    70da:	e8 07 44 01 00       	call   1b4e6 <_ZNSt7__cxx1112basic_stringIcSt11char_traitsIcESaIcEED1Ev>
    70df:	48 8d 85 60 ff ff ff 	lea    rax,[rbp-0xa0]
    70e6:	48 89 c7             	mov    rdi,rax
    70e9:	e8 f8 43 01 00       	call   1b4e6 <_ZNSt7__cxx1112basic_stringIcSt11char_traitsIcESaIcEED1Ev>
    70ee:	48 8d 85 40 ff ff ff 	lea    rax,[rbp-0xc0]
    70f5:	48 89 c7             	mov    rdi,rax
    70f8:	e8 e9 43 01 00       	call   1b4e6 <_ZNSt7__cxx1112basic_stringIcSt11char_traitsIcESaIcEED1Ev>
    70fd:	48 8d 85 20 ff ff ff 	lea    rax,[rbp-0xe0]
    7104:	48 89 c7             	mov    rdi,rax
    7107:	e8 da 43 01 00       	call   1b4e6 <_ZNSt7__cxx1112basic_stringIcSt11char_traitsIcESaIcEED1Ev>
    710c:	48 8d 45 80          	lea    rax,[rbp-0x80]
    7110:	48 89 c7             	mov    rdi,rax
    7113:	e8 ce 43 01 00       	call   1b4e6 <_ZNSt7__cxx1112basic_stringIcSt11char_traitsIcESaIcEED1Ev>
    7118:	48 8b 85 08 ff ff ff 	mov    rax,QWORD PTR [rbp-0xf8]
    711f:	48 83 c0 10          	add    rax,0x10
    7123:	48 89 c7             	mov    rdi,rax
    7126:	e8 bb 2c 01 00       	call   19de6 <_ZN12PlayerAction12promise_type11return_voidEv>
    712b:	48 8b 85 08 ff ff ff 	mov    rax,QWORD PTR [rbp-0xf8]
    7132:	48 83 c0 50          	add    rax,0x50
    7136:	48 89 c7             	mov    rdi,rax
    7139:	e8 0a 5f 01 00       	call   1d048 <_ZNSt6vectorIiSaIiEED1Ev>
    713e:	48 8b 85 08 ff ff ff 	mov    rax,QWORD PTR [rbp-0xf8]
    7145:	48 c7 00 00 00 00 00 	mov    QWORD PTR [rax],0x0
    714c:	48 8b 85 08 ff ff ff 	mov    rax,QWORD PTR [rbp-0xf8]
    7153:	48 83 c0 10          	add    rax,0x10
    7157:	48 89 c7             	mov    rdi,rax
    715a:	e8 77 2c 01 00       	call   19dd6 <_ZN12PlayerAction12promise_type13final_suspendEv>
    715f:	48 8b 85 08 ff ff ff 	mov    rax,QWORD PTR [rbp-0xf8]
    7166:	48 05 98 00 00 00    	add    rax,0x98
    716c:	48 89 c7             	mov    rdi,rax
    716f:	e8 c6 23 01 00       	call   1953a <_ZNKSt7__n486114suspend_always11await_readyEv>
    7174:	83 f0 01             	xor    eax,0x1
    7177:	84 c0                	test   al,al
    7179:	74 3d                	je     71b8 <_ZN8Civilian4voteEPZNKS_4voteERKSt3mapIi12SmartPointerI6PlayerESt4lessIiESaISt4pairIKiS3_EEEiR6LoggeriE97_ZNK8Civilian4voteERKSt3mapIi12SmartPointerI6PlayerESt4lessIiESaISt4pairIKiS3_EEEiR6Loggeri.Frame.actor+0x486>
    717b:	48 8b 85 08 ff ff ff 	mov    rax,QWORD PTR [rbp-0xf8]
    7182:	66 c7 40 44 04 00    	mov    WORD PTR [rax+0x44],0x4
    7188:	48 8b 85 08 ff ff ff 	mov    rax,QWORD PTR [rbp-0xf8]
    718f:	48 8d 98 98 00 00 00 	lea    rbx,[rax+0x98]
    7196:	48 8b 85 08 ff ff ff 	mov    rax,QWORD PTR [rbp-0xf8]
    719d:	48 83 c0 18          	add    rax,0x18
    71a1:	48 89 c7             	mov    rdi,rax
    71a4:	e8 a1 5d 01 00       	call   1cf4a <_ZNKSt7__n486116coroutine_handleIN12PlayerAction12promise_typeEEcvNS0_IvEEEv>
    71a9:	48 89 c6             	mov    rsi,rax
    71ac:	48 89 df             	mov    rdi,rbx
    71af:	e8 9a 23 01 00       	call   1954e <_ZNKSt7__n486114suspend_always13await_suspendENS_16coroutine_handleIvEE>
    71b4:	eb 44                	jmp    71fa <_ZN8Civilian4voteEPZNKS_4voteERKSt3mapIi12SmartPointerI6PlayerESt4lessIiESaISt4pairIKiS3_EEEiR6LoggeriE97_ZNK8Civilian4voteERKSt3mapIi12SmartPointerI6PlayerESt4lessIiESaISt4pairIKiS3_EEEiR6Loggeri.Frame.actor+0x4c8>
    71b6:	eb 18                	jmp    71d0 <_ZN8Civilian4voteEPZNKS_4voteERKSt3mapIi12SmartPointerI6PlayerESt4lessIiESaISt4pairIKiS3_EEEiR6LoggeriE97_ZNK8Civilian4voteERKSt3mapIi12SmartPointerI6PlayerESt4lessIiESaISt4pairIKiS3_EEEiR6Loggeri.Frame.actor+0x49e>
    71b8:	48 8b 85 08 ff ff ff 	mov    rax,QWORD PTR [rbp-0xf8]
    71bf:	48 05 98 00 00 00    	add    rax,0x98
    71c5:	48 89 c7             	mov    rdi,rax
    71c8:	e8 95 23 01 00       	call   19562 <_ZNKSt7__n486114suspend_always12await_resumeEv>
    71cd:	eb 01                	jmp    71d0 <_ZN8Civilian4voteEPZNKS_4voteERKSt3mapIi12SmartPointerI6PlayerESt4lessIiESaISt4pairIKiS3_EEEiR6LoggeriE97_ZNK8Civilian4voteERKSt3mapIi12SmartPointerI6PlayerESt4lessIiESaISt4pairIKiS3_EEEiR6Loggeri.Frame.actor+0x49e>
    71cf:	90                   	nop
    71d0:	48 8b 85 08 ff ff ff 	mov    rax,QWORD PTR [rbp-0xf8]
    71d7:	0f b6 40 46          	movzx  eax,BYTE PTR [rax+0x46]
    71db:	0f b6 c0             	movzx  eax,al
    71de:	85 c0                	test   eax,eax
    71e0:	0f 84 2f 01 00 00    	je     7315 <_ZN8Civilian4voteEPZNKS_4voteERKSt3mapIi12SmartPointerI6PlayerESt4lessIiESaISt4pairIKiS3_EEEiR6LoggeriE97_ZNK8Civilian4voteERKSt3mapIi12SmartPointerI6PlayerESt4lessIiESaISt4pairIKiS3_EEEiR6Loggeri.Frame.actor+0x5e3>
    71e6:	48 8b 85 08 ff ff ff 	mov    rax,QWORD PTR [rbp-0xf8]
    71ed:	48 89 c7             	mov    rdi,rax
    71f0:	e8 ab f5 ff ff       	call   67a0 <_ZdlPv@plt>
    71f5:	e9 1b 01 00 00       	jmp    7315 <_ZN8Civilian4voteEPZNKS_4voteERKSt3mapIi12SmartPointerI6PlayerESt4lessIiESaISt4pairIKiS3_EEEiR6LoggeriE97_ZNK8Civilian4voteERKSt3mapIi12SmartPointerI6PlayerESt4lessIiESaISt4pairIKiS3_EEEiR6Loggeri.Frame.actor+0x5e3>
    71fa:	f3 0f 1e fa          	endbr64 
    71fe:	e9 12 01 00 00       	jmp    7315 <_ZN8Civilian4voteEPZNKS_4voteERKSt3mapIi12SmartPointerI6PlayerESt4lessIiESaISt4pairIKiS3_EEEiR6LoggeriE97_ZNK8Civilian4voteERKSt3mapIi12SmartPointerI6PlayerESt4lessIiESaISt4pairIKiS3_EEEiR6Loggeri.Frame.actor+0x5e3>
    7203:	f3 0f 1e fa          	endbr64 
    7207:	48 89 c3             	mov    rbx,rax
    720a:	48 8d 45 c0          	lea    rax,[rbp-0x40]
    720e:	48 89 c7             	mov    rdi,rax
    7211:	e8 d0 42 01 00       	call   1b4e6 <_ZNSt7__cxx1112basic_stringIcSt11char_traitsIcESaIcEED1Ev>
    7216:	eb 07                	jmp    721f <_ZN8Civilian4voteEPZNKS_4voteERKSt3mapIi12SmartPointerI6PlayerESt4lessIiESaISt4pairIKiS3_EEEiR6LoggeriE97_ZNK8Civilian4voteERKSt3mapIi12SmartPointerI6PlayerESt4lessIiESaISt4pairIKiS3_EEEiR6Loggeri.Frame.actor+0x4ed>
    7218:	f3 0f 1e fa          	endbr64 
    721c:	48 89 c3             	mov    rbx,rax
    721f:	48 8d 45 a0          	lea    rax,[rbp-0x60]
    7223:	48 89 c7             	mov    rdi,rax
    7226:	e8 bb 42 01 00       	call   1b4e6 <_ZNSt7__cxx1112basic_stringIcSt11char_traitsIcESaIcEED1Ev>
    722b:	eb 07                	jmp    7234 <_ZN8Civilian4voteEPZNKS_4voteERKSt3mapIi12SmartPointerI6PlayerESt4lessIiESaISt4pairIKiS3_EEEiR6LoggeriE97_ZNK8Civilian4voteERKSt3mapIi12SmartPointerI6PlayerESt4lessIiESaISt4pairIKiS3_EEEiR6Loggeri.Frame.actor+0x502>
    722d:	f3 0f 1e fa          	endbr64 
    7231:	48 89 c3             	mov    rbx,rax
    7234:	48 8d 85 60 ff ff ff 	lea    rax,[rbp-0xa0]
    723b:	48 89 c7             	mov    rdi,rax
    723e:	e8 a3 42 01 00       	call   1b4e6 <_ZNSt7__cxx1112basic_stringIcSt11char_traitsIcESaIcEED1Ev>
    7243:	eb 07                	jmp    724c <_ZN8Civilian4voteEPZNKS_4voteERKSt3mapIi12SmartPointerI6PlayerESt4lessIiESaISt4pairIKiS3_EEEiR6LoggeriE97_ZNK8Civilian4voteERKSt3mapIi12SmartPointerI6PlayerESt4lessIiESaISt4pairIKiS3_EEEiR6Loggeri.Frame.actor+0x51a>
    7245:	f3 0f 1e fa          	endbr64 
    7249:	48 89 c3             	mov    rbx,rax
    724c:	48 8d 85 40 ff ff ff 	lea    rax,[rbp-0xc0]
    7253:	48 89 c7             	mov    rdi,rax
    7256:	e8 8b 42 01 00       	call   1b4e6 <_ZNSt7__cxx1112basic_stringIcSt11char_traitsIcESaIcEED1Ev>
    725b:	eb 07                	jmp    7264 <_ZN8Civilian4voteEPZNKS_4voteERKSt3mapIi12SmartPointerI6PlayerESt4lessIiESaISt4pairIKiS3_EEEiR6LoggeriE97_ZNK8Civilian4voteERKSt3mapIi12SmartPointerI6PlayerESt4lessIiESaISt4pairIKiS3_EEEiR6Loggeri.Frame.actor+0x532>
    725d:	f3 0f 1e fa          	endbr64 
    7261:	48 89 c3             	mov    rbx,rax
    7264:	48 8d 85 20 ff ff ff 	lea    rax,[rbp-0xe0]
    726b:	48 89 c7             	mov    rdi,rax
    726e:	e8 73 42 01 00       	call   1b4e6 <_ZNSt7__cxx1112basic_stringIcSt11char_traitsIcESaIcEED1Ev>
    7273:	eb 07                	jmp    727c <_ZN8Civilian4voteEPZNKS_4voteERKSt3mapIi12SmartPointerI6PlayerESt4lessIiESaISt4pairIKiS3_EEEiR6LoggeriE97_ZNK8Civilian4voteERKSt3mapIi12SmartPointerI6PlayerESt4lessIiESaISt4pairIKiS3_EEEiR6Loggeri.Frame.actor+0x54a>
    7275:	f3 0f 1e fa          	endbr64 
    7279:	48 89 c3             	mov    rbx,rax
    727c:	48 8d 45 80          	lea    rax,[rbp-0x80]
    7280:	48 89 c7             	mov    rdi,rax
    7283:	e8 5e 42 01 00       	call   1b4e6 <_ZNSt7__cxx1112basic_stringIcSt11char_traitsIcESaIcEED1Ev>
    7288:	eb 07                	jmp    7291 <_ZN8Civilian4voteEPZNKS_4voteERKSt3mapIi12SmartPointerI6PlayerESt4lessIiESaISt4pairIKiS3_EEEiR6LoggeriE97_ZNK8Civilian4voteERKSt3mapIi12SmartPointerI6PlayerESt4lessIiESaISt4pairIKiS3_EEEiR6Loggeri.Frame.actor+0x55f>
    728a:	f3 0f 1e fa          	endbr64 
    728e:	48 89 c3             	mov    rbx,rax
    7291:	48 8b 85 08 ff ff ff 	mov    rax,QWORD PTR [rbp-0xf8]
    7298:	48 83 c0 50          	add    rax,0x50
    729c:	48 89 c7             	mov    rdi,rax
    729f:	e8 a4 5d 01 00       	call   1d048 <_ZNSt6vectorIiSaIiEED1Ev>
    72a4:	48 89 d8             	mov    rax,rbx
    72a7:	48 89 c7             	mov    rdi,rax
    72aa:	e8 21 f3 ff ff       	call   65d0 <__cxa_begin_catch@plt>
    72af:	48 8b 85 08 ff ff ff 	mov    rax,QWORD PTR [rbp-0xf8]
    72b6:	0f b6 40 47          	movzx  eax,BYTE PTR [rax+0x47]
    72ba:	83 f0 01             	xor    eax,0x1
    72bd:	84 c0                	test   al,al
    72bf:	74 05                	je     72c6 <_ZN8Civilian4voteEPZNKS_4voteERKSt3mapIi12SmartPointerI6PlayerESt4lessIiESaISt4pairIKiS3_EEEiR6LoggeriE97_ZNK8Civilian4voteERKSt3mapIi12SmartPointerI6PlayerESt4lessIiESaISt4pairIKiS3_EEEiR6Loggeri.Frame.actor+0x594>
    72c1:	e8 2a f6 ff ff       	call   68f0 <__cxa_rethrow@plt>
    72c6:	48 8b 85 08 ff ff ff 	mov    rax,QWORD PTR [rbp-0xf8]
    72cd:	48 c7 00 00 00 00 00 	mov    QWORD PTR [rax],0x0
    72d4:	48 8b 85 08 ff ff ff 	mov    rax,QWORD PTR [rbp-0xf8]
    72db:	66 c7 40 44 00 00    	mov    WORD PTR [rax+0x44],0x0
    72e1:	48 8b 85 08 ff ff ff 	mov    rax,QWORD PTR [rbp-0xf8]
    72e8:	48 83 c0 10          	add    rax,0x10
    72ec:	48 89 c7             	mov    rdi,rax
    72ef:	e8 02 2b 01 00       	call   19df6 <_ZN12PlayerAction12promise_type19unhandled_exceptionEv>
    72f4:	e8 57 f6 ff ff       	call   6950 <__cxa_end_catch@plt>
    72f9:	e9 40 fe ff ff       	jmp    713e <_ZN8Civilian4voteEPZNKS_4voteERKSt3mapIi12SmartPointerI6PlayerESt4lessIiESaISt4pairIKiS3_EEEiR6LoggeriE97_ZNK8Civilian4voteERKSt3mapIi12SmartPointerI6PlayerESt4lessIiESaISt4pairIKiS3_EEEiR6Loggeri.Frame.actor+0x40c>
    72fe:	f3 0f 1e fa          	endbr64 
    7302:	48 89 c3             	mov    rbx,rax
    7305:	e8 46 f6 ff ff       	call   6950 <__cxa_end_catch@plt>
    730a:	48 89 d8             	mov    rax,rbx
    730d:	48 89 c7             	mov    rdi,rax
    7310:	e8 8b f6 ff ff       	call   69a0 <_Unwind_Resume@plt>
    7315:	90                   	nop
    7316:	48 8b 45 e8          	mov    rax,QWORD PTR [rbp-0x18]
    731a:	64 48 2b 04 25 28 00 	sub    rax,QWORD PTR fs:0x28
    7321:	00 00 
    7323:	74 05                	je     732a <_ZN8Civilian4voteEPZNKS_4voteERKSt3mapIi12SmartPointerI6PlayerESt4lessIiESaISt4pairIKiS3_EEEiR6LoggeriE97_ZNK8Civilian4voteERKSt3mapIi12SmartPointerI6PlayerESt4lessIiESaISt4pairIKiS3_EEEiR6Loggeri.Frame.actor+0x5f8>
    7325:	e8 16 f5 ff ff       	call   6840 <__stack_chk_fail@plt>
    732a:	48 8b 5d f8          	mov    rbx,QWORD PTR [rbp-0x8]
    732e:	c9                   	leave  
    732f:	c3                   	ret    

0000000000007330 <_ZN8Civilian4voteEPZNKS_4voteERKSt3mapIi12SmartPointerI6PlayerESt4lessIiESaISt4pairIKiS3_EEEiR6LoggeriE97_ZNK8Civilian4voteERKSt3mapIi12SmartPointerI6PlayerESt4lessIiESaISt4pairIKiS3_EEEiR6Loggeri.Frame.destroy>:
    7330:	f3 0f 1e fa          	endbr64 
    7334:	55                   	push   rbp
    7335:	48 89 e5             	mov    rbp,rsp
    7338:	48 83 ec 10          	sub    rsp,0x10
    733c:	48 89 7d f8          	mov    QWORD PTR [rbp-0x8],rdi
    7340:	48 8b 45 f8          	mov    rax,QWORD PTR [rbp-0x8]
    7344:	0f b7 40 44          	movzx  eax,WORD PTR [rax+0x44]
    7348:	83 c8 01             	or     eax,0x1
    734b:	89 c2                	mov    edx,eax
    734d:	48 8b 45 f8          	mov    rax,QWORD PTR [rbp-0x8]
    7351:	66 89 50 44          	mov    WORD PTR [rax+0x44],dx
    7355:	48 8b 45 f8          	mov    rax,QWORD PTR [rbp-0x8]
    7359:	48 89 c7             	mov    rdi,rax
    735c:	e8 d1 f9 ff ff       	call   6d32 <_ZN8Civilian4voteEPZNKS_4voteERKSt3mapIi12SmartPointerI6PlayerESt4lessIiESaISt4pairIKiS3_EEEiR6LoggeriE97_ZNK8Civilian4voteERKSt3mapIi12SmartPointerI6PlayerESt4lessIiESaISt4pairIKiS3_EEEiR6Loggeri.Frame.actor>
    7361:	c9                   	leave  
    7362:	c3                   	ret    
    7363:	90                   	nop

0000000000007364 <_ZN5Mafia3actEPZNKS_3actERKSt3mapIi12SmartPointerI6PlayerESt4lessIiESaISt4pairIKiS3_EEEiR6LoggeribE94_ZNK5Mafia3actERKSt3mapIi12SmartPointerI6PlayerESt4lessIiESaISt4pairIKiS3_EEEiR6Loggerib.Frame.actor>:
    7364:	f3 0f 1e fa          	endbr64 
    7368:	55                   	push   rbp
    7369:	48 89 e5             	mov    rbp,rsp
    736c:	41 57                	push   r15
    736e:	41 56                	push   r14
    7370:	41 55                	push   r13
    7372:	41 54                	push   r12
    7374:	53                   	push   rbx
    7375:	48 81 ec f8 00 00 00 	sub    rsp,0xf8
    737c:	48 89 bd e8 fe ff ff 	mov    QWORD PTR [rbp-0x118],rdi
    7383:	64 48 8b 04 25 28 00 	mov    rax,QWORD PTR fs:0x28
    738a:	00 00 
    738c:	48 89 45 c8          	mov    QWORD PTR [rbp-0x38],rax
    7390:	31 c0                	xor    eax,eax
    7392:	48 8b 85 e8 fe ff ff 	mov    rax,QWORD PTR [rbp-0x118]
    7399:	0f b7 40 46          	movzx  eax,WORD PTR [rax+0x46]
    739d:	83 e0 01             	and    eax,0x1
    73a0:	66 85 c0             	test   ax,ax
    73a3:	74 30                	je     73d5 <_ZN5Mafia3actEPZNKS_3actERKSt3mapIi12SmartPointerI6PlayerESt4lessIiESaISt4pairIKiS3_EEEiR6LoggeribE94_ZNK5Mafia3actERKSt3mapIi12SmartPointerI6PlayerESt4lessIiESaISt4pairIKiS3_EEEiR6Loggerib.Frame.actor+0x71>
    73a5:	48 8b 85 e8 fe ff ff 	mov    rax,QWORD PTR [rbp-0x118]
    73ac:	0f b7 40 46          	movzx  eax,WORD PTR [rax+0x46]
    73b0:	0f b7 c0             	movzx  eax,ax
    73b3:	83 f8 05             	cmp    eax,0x5
    73b6:	0f 84 c7 0b 00 00    	je     7f83 <_ZN5Mafia3actEPZNKS_3actERKSt3mapIi12SmartPointerI6PlayerESt4lessIiESaISt4pairIKiS3_EEEiR6LoggeribE94_ZNK5Mafia3actERKSt3mapIi12SmartPointerI6PlayerESt4lessIiESaISt4pairIKiS3_EEEiR6Loggerib.Frame.actor+0xc1f>
    73bc:	83 f8 05             	cmp    eax,0x5
    73bf:	7f 12                	jg     73d3 <_ZN5Mafia3actEPZNKS_3actERKSt3mapIi12SmartPointerI6PlayerESt4lessIiESaISt4pairIKiS3_EEEiR6LoggeribE94_ZNK5Mafia3actERKSt3mapIi12SmartPointerI6PlayerESt4lessIiESaISt4pairIKiS3_EEEiR6Loggerib.Frame.actor+0x6f>
    73c1:	83 f8 01             	cmp    eax,0x1
    73c4:	0f 84 d2 0b 00 00    	je     7f9c <_ZN5Mafia3actEPZNKS_3actERKSt3mapIi12SmartPointerI6PlayerESt4lessIiESaISt4pairIKiS3_EEEiR6LoggeribE94_ZNK5Mafia3actERKSt3mapIi12SmartPointerI6PlayerESt4lessIiESaISt4pairIKiS3_EEEiR6Loggerib.Frame.actor+0xc38>
    73ca:	83 f8 03             	cmp    eax,0x3
    73cd:	0f 84 be 00 00 00    	je     7491 <_ZN5Mafia3actEPZNKS_3actERKSt3mapIi12SmartPointerI6PlayerESt4lessIiESaISt4pairIKiS3_EEEiR6LoggeribE94_ZNK5Mafia3actERKSt3mapIi12SmartPointerI6PlayerESt4lessIiESaISt4pairIKiS3_EEEiR6Loggerib.Frame.actor+0x12d>
    73d3:	0f 0b                	ud2    
    73d5:	48 8b 85 e8 fe ff ff 	mov    rax,QWORD PTR [rbp-0x118]
    73dc:	0f b7 40 46          	movzx  eax,WORD PTR [rax+0x46]
    73e0:	0f b7 c0             	movzx  eax,ax
    73e3:	83 f8 04             	cmp    eax,0x4
    73e6:	0f 84 99 0b 00 00    	je     7f85 <_ZN5Mafia3actEPZNKS_3actERKSt3mapIi12SmartPointerI6PlayerESt4lessIiESaISt4pairIKiS3_EEEiR6LoggeribE94_ZNK5Mafia3actERKSt3mapIi12SmartPointerI6PlayerESt4lessIiESaISt4pairIKiS3_EEEiR6Loggerib.Frame.actor+0xc21>
    73ec:	83 f8 04             	cmp    eax,0x4
    73ef:	7f 63                	jg     7454 <_ZN5Mafia3actEPZNKS_3actERKSt3mapIi12SmartPointerI6PlayerESt4lessIiESaISt4pairIKiS3_EEEiR6LoggeribE94_ZNK5Mafia3actERKSt3mapIi12SmartPointerI6PlayerESt4lessIiESaISt4pairIKiS3_EEEiR6Loggerib.Frame.actor+0xf0>
    73f1:	85 c0                	test   eax,eax
    73f3:	74 0b                	je     7400 <_ZN5Mafia3actEPZNKS_3actERKSt3mapIi12SmartPointerI6PlayerESt4lessIiESaISt4pairIKiS3_EEEiR6LoggeribE94_ZNK5Mafia3actERKSt3mapIi12SmartPointerI6PlayerESt4lessIiESaISt4pairIKiS3_EEEiR6Loggerib.Frame.actor+0x9c>
    73f5:	83 f8 02             	cmp    eax,0x2
    73f8:	0f 84 98 00 00 00    	je     7496 <_ZN5Mafia3actEPZNKS_3actERKSt3mapIi12SmartPointerI6PlayerESt4lessIiESaISt4pairIKiS3_EEEiR6LoggeribE94_ZNK5Mafia3actERKSt3mapIi12SmartPointerI6PlayerESt4lessIiESaISt4pairIKiS3_EEEiR6Loggerib.Frame.actor+0x132>
    73fe:	eb 54                	jmp    7454 <_ZN5Mafia3actEPZNKS_3actERKSt3mapIi12SmartPointerI6PlayerESt4lessIiESaISt4pairIKiS3_EEEiR6LoggeribE94_ZNK5Mafia3actERKSt3mapIi12SmartPointerI6PlayerESt4lessIiESaISt4pairIKiS3_EEEiR6Loggerib.Frame.actor+0xf0>
    7400:	48 8b 9d e8 fe ff ff 	mov    rbx,QWORD PTR [rbp-0x118]
    7407:	48 8b 85 e8 fe ff ff 	mov    rax,QWORD PTR [rbp-0x118]
    740e:	48 89 c7             	mov    rdi,rax
    7411:	e8 5a 5b 01 00       	call   1cf70 <_ZNSt7__n486116coroutine_handleIN12PlayerAction12promise_typeEE12from_addressEPv>
    7416:	48 89 43 18          	mov    QWORD PTR [rbx+0x18],rax
    741a:	48 8b 85 e8 fe ff ff 	mov    rax,QWORD PTR [rbp-0x118]
    7421:	c6 40 49 00          	mov    BYTE PTR [rax+0x49],0x0
    7425:	48 8b 85 e8 fe ff ff 	mov    rax,QWORD PTR [rbp-0x118]
    742c:	48 83 c0 10          	add    rax,0x10
    7430:	48 89 c7             	mov    rdi,rax
    7433:	e8 8e 29 01 00       	call   19dc6 <_ZN12PlayerAction12promise_type15initial_suspendEv>
    7438:	48 8b 85 e8 fe ff ff 	mov    rax,QWORD PTR [rbp-0x118]
    743f:	48 83 c0 4a          	add    rax,0x4a
    7443:	48 89 c7             	mov    rdi,rax
    7446:	e8 ef 20 01 00       	call   1953a <_ZNKSt7__n486114suspend_always11await_readyEv>
    744b:	83 f0 01             	xor    eax,0x1
    744e:	84 c0                	test   al,al
    7450:	75 04                	jne    7456 <_ZN5Mafia3actEPZNKS_3actERKSt3mapIi12SmartPointerI6PlayerESt4lessIiESaISt4pairIKiS3_EEEiR6LoggeribE94_ZNK5Mafia3actERKSt3mapIi12SmartPointerI6PlayerESt4lessIiESaISt4pairIKiS3_EEEiR6Loggerib.Frame.actor+0xf2>
    7452:	eb 42                	jmp    7496 <_ZN5Mafia3actEPZNKS_3actERKSt3mapIi12SmartPointerI6PlayerESt4lessIiESaISt4pairIKiS3_EEEiR6LoggeribE94_ZNK5Mafia3actERKSt3mapIi12SmartPointerI6PlayerESt4lessIiESaISt4pairIKiS3_EEEiR6Loggerib.Frame.actor+0x132>
    7454:	0f 0b                	ud2    
    7456:	48 8b 85 e8 fe ff ff 	mov    rax,QWORD PTR [rbp-0x118]
    745d:	66 c7 40 46 02 00    	mov    WORD PTR [rax+0x46],0x2
    7463:	48 8b 85 e8 fe ff ff 	mov    rax,QWORD PTR [rbp-0x118]
    746a:	48 8d 58 4a          	lea    rbx,[rax+0x4a]
    746e:	48 8b 85 e8 fe ff ff 	mov    rax,QWORD PTR [rbp-0x118]
    7475:	48 83 c0 18          	add    rax,0x18
    7479:	48 89 c7             	mov    rdi,rax
    747c:	e8 c9 5a 01 00       	call   1cf4a <_ZNKSt7__n486116coroutine_handleIN12PlayerAction12promise_typeEEcvNS0_IvEEEv>
    7481:	48 89 c6             	mov    rsi,rax
    7484:	48 89 df             	mov    rdi,rbx
    7487:	e8 c2 20 01 00       	call   1954e <_ZNKSt7__n486114suspend_always13await_suspendENS_16coroutine_handleIvEE>
    748c:	e9 36 0b 00 00       	jmp    7fc7 <_ZN5Mafia3actEPZNKS_3actERKSt3mapIi12SmartPointerI6PlayerESt4lessIiESaISt4pairIKiS3_EEEiR6LoggeribE94_ZNK5Mafia3actERKSt3mapIi12SmartPointerI6PlayerESt4lessIiESaISt4pairIKiS3_EEEiR6Loggerib.Frame.actor+0xc63>
    7491:	e9 07 0b 00 00       	jmp    7f9d <_ZN5Mafia3actEPZNKS_3actERKSt3mapIi12SmartPointerI6PlayerESt4lessIiESaISt4pairIKiS3_EEEiR6LoggeribE94_ZNK5Mafia3actERKSt3mapIi12SmartPointerI6PlayerESt4lessIiESaISt4pairIKiS3_EEEiR6Loggerib.Frame.actor+0xc39>
    7496:	48 8b 85 e8 fe ff ff 	mov    rax,QWORD PTR [rbp-0x118]
    749d:	c6 40 49 01          	mov    BYTE PTR [rax+0x49],0x1
    74a1:	48 8b 85 e8 fe ff ff 	mov    rax,QWORD PTR [rbp-0x118]
    74a8:	48 83 c0 4a          	add    rax,0x4a
    74ac:	48 89 c7             	mov    rdi,rax
    74af:	e8 ae 20 01 00       	call   19562 <_ZNKSt7__n486114suspend_always12await_resumeEv>
    74b4:	48 8b 85 e8 fe ff ff 	mov    rax,QWORD PTR [rbp-0x118]
    74bb:	0f b6 40 44          	movzx  eax,BYTE PTR [rax+0x44]
    74bf:	84 c0                	test   al,al
    74c1:	0f 84 cb 03 00 00    	je     7892 <_ZN5Mafia3actEPZNKS_3actERKSt3mapIi12SmartPointerI6PlayerESt4lessIiESaISt4pairIKiS3_EEEiR6LoggeribE94_ZNK5Mafia3actERKSt3mapIi12SmartPointerI6PlayerESt4lessIiESaISt4pairIKiS3_EEEiR6Loggerib.Frame.actor+0x52e>
    74c7:	48 8b 85 e8 fe ff ff 	mov    rax,QWORD PTR [rbp-0x118]
    74ce:	48 83 c0 50          	add    rax,0x50
    74d2:	48 89 c7             	mov    rdi,rax
    74d5:	e8 32 2b 01 00       	call   1a00c <_ZNSt6vectorIiSaIiEEC1Ev>
    74da:	48 8b 85 e8 fe ff ff 	mov    rax,QWORD PTR [rbp-0x118]
    74e1:	48 8b 50 28          	mov    rdx,QWORD PTR [rax+0x28]
    74e5:	48 8b 85 e8 fe ff ff 	mov    rax,QWORD PTR [rbp-0x118]
    74ec:	48 89 90 88 00 00 00 	mov    QWORD PTR [rax+0x88],rdx
    74f3:	48 8b 85 e8 fe ff ff 	mov    rax,QWORD PTR [rbp-0x118]
    74fa:	48 8b 80 88 00 00 00 	mov    rax,QWORD PTR [rax+0x88]
    7501:	48 8b 9d e8 fe ff ff 	mov    rbx,QWORD PTR [rbp-0x118]
    7508:	48 89 c7             	mov    rdi,rax
    750b:	e8 80 5b 01 00       	call   1d090 <_ZNKSt3mapIi12SmartPointerI6PlayerESt4lessIiESaISt4pairIKiS2_EEE5beginEv>
    7510:	48 89 83 90 00 00 00 	mov    QWORD PTR [rbx+0x90],rax
    7517:	48 8b 85 e8 fe ff ff 	mov    rax,QWORD PTR [rbp-0x118]
    751e:	48 8b 80 88 00 00 00 	mov    rax,QWORD PTR [rax+0x88]
    7525:	48 8b 9d e8 fe ff ff 	mov    rbx,QWORD PTR [rbp-0x118]
    752c:	48 89 c7             	mov    rdi,rax
    752f:	e8 7a 5b 01 00       	call   1d0ae <_ZNKSt3mapIi12SmartPointerI6PlayerESt4lessIiESaISt4pairIKiS2_EEE3endEv>
    7534:	48 89 83 98 00 00 00 	mov    QWORD PTR [rbx+0x98],rax
    753b:	e9 71 01 00 00       	jmp    76b1 <_ZN5Mafia3actEPZNKS_3actERKSt3mapIi12SmartPointerI6PlayerESt4lessIiESaISt4pairIKiS3_EEEiR6LoggeribE94_ZNK5Mafia3actERKSt3mapIi12SmartPointerI6PlayerESt4lessIiESaISt4pairIKiS3_EEEiR6Loggerib.Frame.actor+0x34d>
    7540:	48 8b 85 e8 fe ff ff 	mov    rax,QWORD PTR [rbp-0x118]
    7547:	48 05 90 00 00 00    	add    rax,0x90
    754d:	48 89 c7             	mov    rdi,rax
    7550:	e8 c9 5b 01 00       	call   1d11e <_ZNKSt23_Rb_tree_const_iteratorISt4pairIKi12SmartPointerI6PlayerEEEdeEv>
    7555:	48 8b 95 e8 fe ff ff 	mov    rdx,QWORD PTR [rbp-0x118]
    755c:	48 89 42 70          	mov    QWORD PTR [rdx+0x70],rax
    7560:	48 8b 85 e8 fe ff ff 	mov    rax,QWORD PTR [rbp-0x118]
    7567:	48 8b 40 70          	mov    rax,QWORD PTR [rax+0x70]
    756b:	48 89 c7             	mov    rdi,rax
    756e:	e8 b8 2a 01 00       	call   1a02b <_ZSt3getILm0EKi12SmartPointerI6PlayerEERKNSt13tuple_elementIXT_ESt4pairIT0_T1_EE4typeERKS8_>
    7573:	48 8b 95 e8 fe ff ff 	mov    rdx,QWORD PTR [rbp-0x118]
    757a:	48 89 42 78          	mov    QWORD PTR [rdx+0x78],rax
    757e:	48 8b 85 e8 fe ff ff 	mov    rax,QWORD PTR [rbp-0x118]
    7585:	48 8b 40 70          	mov    rax,QWORD PTR [rax+0x70]
    7589:	48 89 c7             	mov    rdi,rax
    758c:	e8 b8 2a 01 00       	call   1a049 <_ZSt3getILm1EKi12SmartPointerI6PlayerEERKNSt13tuple_elementIXT_ESt4pairIT0_T1_EE4typeERKS8_>
    7591:	48 8b 95 e8 fe ff ff 	mov    rdx,QWORD PTR [rbp-0x118]
    7598:	48 89 82 80 00 00 00 	mov    QWORD PTR [rdx+0x80],rax
    759f:	bb 00 00 00 00       	mov    ebx,0x0
    75a4:	41 bc 00 00 00 00    	mov    r12d,0x0
    75aa:	48 8b 85 e8 fe ff ff 	mov    rax,QWORD PTR [rbp-0x118]
    75b1:	48 8b 80 80 00 00 00 	mov    rax,QWORD PTR [rax+0x80]
    75b8:	48 89 c7             	mov    rdi,rax
    75bb:	e8 3e 5d 01 00       	call   1d2fe <_ZNK12SmartPointerI6PlayerEptEv>
    75c0:	48 8b 10             	mov    rdx,QWORD PTR [rax]
    75c3:	48 83 c2 20          	add    rdx,0x20
    75c7:	48 8b 0a             	mov    rcx,QWORD PTR [rdx]
    75ca:	48 8d 55 80          	lea    rdx,[rbp-0x80]
    75ce:	48 89 c6             	mov    rsi,rax
    75d1:	48 89 d7             	mov    rdi,rdx
    75d4:	ff d1                	call   rcx
    75d6:	bb 01 00 00 00       	mov    ebx,0x1
    75db:	48 8d 45 80          	lea    rax,[rbp-0x80]
    75df:	48 8d 15 fc 2a 02 00 	lea    rdx,[rip+0x22afc]        # 2a0e2 <_ZN9__gnu_cxxL21__default_lock_policyE+0xa2>
    75e6:	48 89 d6             	mov    rsi,rdx
    75e9:	48 89 c7             	mov    rdi,rax
    75ec:	e8 22 5d 01 00       	call   1d313 <_ZSteqIcSt11char_traitsIcESaIcEEbRKNSt7__cxx1112basic_stringIT_T0_T1_EEPKS5_>
    75f1:	83 f0 01             	xor    eax,0x1
    75f4:	84 c0                	test   al,al
    75f6:	74 57                	je     764f <_ZN5Mafia3actEPZNKS_3actERKSt3mapIi12SmartPointerI6PlayerESt4lessIiESaISt4pairIKiS3_EEEiR6LoggeribE94_ZNK5Mafia3actERKSt3mapIi12SmartPointerI6PlayerESt4lessIiESaISt4pairIKiS3_EEEiR6Loggerib.Frame.actor+0x2eb>
    75f8:	48 8b 85 e8 fe ff ff 	mov    rax,QWORD PTR [rbp-0x118]
    75ff:	48 8b 80 80 00 00 00 	mov    rax,QWORD PTR [rax+0x80]
    7606:	48 89 c7             	mov    rdi,rax
    7609:	e8 f0 5c 01 00       	call   1d2fe <_ZNK12SmartPointerI6PlayerEptEv>
    760e:	48 8b 10             	mov    rdx,QWORD PTR [rax]
    7611:	48 83 c2 20          	add    rdx,0x20
    7615:	48 8b 0a             	mov    rcx,QWORD PTR [rdx]
    7618:	48 8d 55 a0          	lea    rdx,[rbp-0x60]
    761c:	48 89 c6             	mov    rsi,rax
    761f:	48 89 d7             	mov    rdi,rdx
    7622:	ff d1                	call   rcx
    7624:	41 bc 01 00 00 00    	mov    r12d,0x1
    762a:	48 8d 45 a0          	lea    rax,[rbp-0x60]
    762e:	48 8d 15 b8 2a 02 00 	lea    rdx,[rip+0x22ab8]        # 2a0ed <_ZN9__gnu_cxxL21__default_lock_policyE+0xad>
    7635:	48 89 d6             	mov    rsi,rdx
    7638:	48 89 c7             	mov    rdi,rax
    763b:	e8 d3 5c 01 00       	call   1d313 <_ZSteqIcSt11char_traitsIcESaIcEEbRKNSt7__cxx1112basic_stringIT_T0_T1_EEPKS5_>
    7640:	83 f0 01             	xor    eax,0x1
    7643:	84 c0                	test   al,al
    7645:	74 08                	je     764f <_ZN5Mafia3actEPZNKS_3actERKSt3mapIi12SmartPointerI6PlayerESt4lessIiESaISt4pairIKiS3_EEEiR6LoggeribE94_ZNK5Mafia3actERKSt3mapIi12SmartPointerI6PlayerESt4lessIiESaISt4pairIKiS3_EEEiR6Loggerib.Frame.actor+0x2eb>
    7647:	41 bd 01 00 00 00    	mov    r13d,0x1
    764d:	eb 06                	jmp    7655 <_ZN5Mafia3actEPZNKS_3actERKSt3mapIi12SmartPointerI6PlayerESt4lessIiESaISt4pairIKiS3_EEEiR6LoggeribE94_ZNK5Mafia3actERKSt3mapIi12SmartPointerI6PlayerESt4lessIiESaISt4pairIKiS3_EEEiR6Loggerib.Frame.actor+0x2f1>
    764f:	41 bd 00 00 00 00    	mov    r13d,0x0
    7655:	45 84 e4             	test   r12b,r12b
    7658:	74 0c                	je     7666 <_ZN5Mafia3actEPZNKS_3actERKSt3mapIi12SmartPointerI6PlayerESt4lessIiESaISt4pairIKiS3_EEEiR6LoggeribE94_ZNK5Mafia3actERKSt3mapIi12SmartPointerI6PlayerESt4lessIiESaISt4pairIKiS3_EEEiR6Loggerib.Frame.actor+0x302>
    765a:	48 8d 45 a0          	lea    rax,[rbp-0x60]
    765e:	48 89 c7             	mov    rdi,rax
    7661:	e8 80 3e 01 00       	call   1b4e6 <_ZNSt7__cxx1112basic_stringIcSt11char_traitsIcESaIcEED1Ev>
    7666:	84 db                	test   bl,bl
    7668:	74 0c                	je     7676 <_ZN5Mafia3actEPZNKS_3actERKSt3mapIi12SmartPointerI6PlayerESt4lessIiESaISt4pairIKiS3_EEEiR6LoggeribE94_ZNK5Mafia3actERKSt3mapIi12SmartPointerI6PlayerESt4lessIiESaISt4pairIKiS3_EEEiR6Loggerib.Frame.actor+0x312>
    766a:	48 8d 45 80          	lea    rax,[rbp-0x80]
    766e:	48 89 c7             	mov    rdi,rax
    7671:	e8 70 3e 01 00       	call   1b4e6 <_ZNSt7__cxx1112basic_stringIcSt11char_traitsIcESaIcEED1Ev>
    7676:	45 84 ed             	test   r13b,r13b
    7679:	74 21                	je     769c <_ZN5Mafia3actEPZNKS_3actERKSt3mapIi12SmartPointerI6PlayerESt4lessIiESaISt4pairIKiS3_EEEiR6LoggeribE94_ZNK5Mafia3actERKSt3mapIi12SmartPointerI6PlayerESt4lessIiESaISt4pairIKiS3_EEEiR6Loggerib.Frame.actor+0x338>
    767b:	48 8b 85 e8 fe ff ff 	mov    rax,QWORD PTR [rbp-0x118]
    7682:	48 8d 50 50          	lea    rdx,[rax+0x50]
    7686:	48 8b 85 e8 fe ff ff 	mov    rax,QWORD PTR [rbp-0x118]
    768d:	48 8b 40 78          	mov    rax,QWORD PTR [rax+0x78]
    7691:	48 89 c6             	mov    rsi,rax
    7694:	48 89 d7             	mov    rdi,rdx
    7697:	e8 cc 5a 01 00       	call   1d168 <_ZNSt6vectorIiSaIiEE9push_backERKi>
    769c:	48 8b 85 e8 fe ff ff 	mov    rax,QWORD PTR [rbp-0x118]
    76a3:	48 05 90 00 00 00    	add    rax,0x90
    76a9:	48 89 c7             	mov    rdi,rax
    76ac:	e8 41 5a 01 00       	call   1d0f2 <_ZNSt23_Rb_tree_const_iteratorISt4pairIKi12SmartPointerI6PlayerEEEppEv>
    76b1:	48 8b 85 e8 fe ff ff 	mov    rax,QWORD PTR [rbp-0x118]
    76b8:	48 8d 90 98 00 00 00 	lea    rdx,[rax+0x98]
    76bf:	48 8b 85 e8 fe ff ff 	mov    rax,QWORD PTR [rbp-0x118]
    76c6:	48 05 90 00 00 00    	add    rax,0x90
    76cc:	48 89 d6             	mov    rsi,rdx
    76cf:	48 89 c7             	mov    rdi,rax
    76d2:	e8 f5 59 01 00       	call   1d0cc <_ZSteqRKSt23_Rb_tree_const_iteratorISt4pairIKi12SmartPointerI6PlayerEEES8_>
    76d7:	83 f0 01             	xor    eax,0x1
    76da:	84 c0                	test   al,al
    76dc:	0f 85 5e fe ff ff    	jne    7540 <_ZN5Mafia3actEPZNKS_3actERKSt3mapIi12SmartPointerI6PlayerESt4lessIiESaISt4pairIKiS3_EEEiR6LoggeribE94_ZNK5Mafia3actERKSt3mapIi12SmartPointerI6PlayerESt4lessIiESaISt4pairIKiS3_EEEiR6Loggerib.Frame.actor+0x1dc>
    76e2:	48 8b 85 e8 fe ff ff 	mov    rax,QWORD PTR [rbp-0x118]
    76e9:	c7 40 68 ff ff ff ff 	mov    DWORD PTR [rax+0x68],0xffffffff
    76f0:	48 8b 85 e8 fe ff ff 	mov    rax,QWORD PTR [rbp-0x118]
    76f7:	48 83 c0 50          	add    rax,0x50
    76fb:	48 89 c7             	mov    rdi,rax
    76fe:	e8 51 5c 01 00       	call   1d354 <_ZNKSt6vectorIiSaIiEE5emptyEv>
    7703:	83 f0 01             	xor    eax,0x1
    7706:	84 c0                	test   al,al
    7708:	74 1d                	je     7727 <_ZN5Mafia3actEPZNKS_3actERKSt3mapIi12SmartPointerI6PlayerESt4lessIiESaISt4pairIKiS3_EEEiR6LoggeribE94_ZNK5Mafia3actERKSt3mapIi12SmartPointerI6PlayerESt4lessIiESaISt4pairIKiS3_EEEiR6Loggerib.Frame.actor+0x3c3>
    770a:	48 8b 85 e8 fe ff ff 	mov    rax,QWORD PTR [rbp-0x118]
    7711:	48 83 c0 50          	add    rax,0x50
    7715:	48 89 c7             	mov    rdi,rax
    7718:	e8 ca 5a 01 00       	call   1d1e7 <_Z13choose_randomIiET_RKSt6vectorIS0_SaIS0_EE>
    771d:	48 8b 95 e8 fe ff ff 	mov    rdx,QWORD PTR [rbp-0x118]
    7724:	89 42 68             	mov    DWORD PTR [rdx+0x68],eax
    7727:	48 8b 85 e8 fe ff ff 	mov    rax,QWORD PTR [rbp-0x118]
    772e:	48 8b 40 20          	mov    rax,QWORD PTR [rax+0x20]
    7732:	48 8b 95 e8 fe ff ff 	mov    rdx,QWORD PTR [rbp-0x118]
    7739:	8b 52 68             	mov    edx,DWORD PTR [rdx+0x68]
    773c:	89 50 10             	mov    DWORD PTR [rax+0x10],edx
    773f:	48 8b 85 e8 fe ff ff 	mov    rax,QWORD PTR [rbp-0x118]
    7746:	48 8b 58 38          	mov    rbx,QWORD PTR [rax+0x38]
    774a:	48 8b 85 e8 fe ff ff 	mov    rax,QWORD PTR [rbp-0x118]
    7751:	48 8b 40 20          	mov    rax,QWORD PTR [rax+0x20]
    7755:	8b 50 10             	mov    edx,DWORD PTR [rax+0x10]
    7758:	48 8d 85 60 ff ff ff 	lea    rax,[rbp-0xa0]
    775f:	89 d6                	mov    esi,edx
    7761:	48 89 c7             	mov    rdi,rax
    7764:	e8 58 0c 01 00       	call   183c1 <_ZNSt7__cxx119to_stringEi>
    7769:	48 8b 85 e8 fe ff ff 	mov    rax,QWORD PTR [rbp-0x118]
    7770:	8b 50 30             	mov    edx,DWORD PTR [rax+0x30]
    7773:	48 8d 85 00 ff ff ff 	lea    rax,[rbp-0x100]
    777a:	89 d6                	mov    esi,edx
    777c:	48 89 c7             	mov    rdi,rax
    777f:	e8 3d 0c 01 00       	call   183c1 <_ZNSt7__cxx119to_stringEi>
    7784:	48 8d 85 20 ff ff ff 	lea    rax,[rbp-0xe0]
    778b:	48 8d 95 00 ff ff ff 	lea    rdx,[rbp-0x100]
    7792:	48 8d 0d 66 29 02 00 	lea    rcx,[rip+0x22966]        # 2a0ff <_ZN9__gnu_cxxL21__default_lock_policyE+0xbf>
    7799:	48 89 ce             	mov    rsi,rcx
    779c:	48 89 c7             	mov    rdi,rax
    779f:	e8 2f 41 01 00       	call   1b8d3 <_ZStplIcSt11char_traitsIcESaIcEENSt7__cxx1112basic_stringIT_T0_T1_EEPKS5_OS8_>
    77a4:	48 8d 85 40 ff ff ff 	lea    rax,[rbp-0xc0]
    77ab:	48 8d 8d 20 ff ff ff 	lea    rcx,[rbp-0xe0]
    77b2:	48 8d 15 52 29 02 00 	lea    rdx,[rip+0x22952]        # 2a10b <_ZN9__gnu_cxxL21__default_lock_policyE+0xcb>
    77b9:	48 89 ce             	mov    rsi,rcx
    77bc:	48 89 c7             	mov    rdi,rax
    77bf:	e8 31 55 01 00       	call   1ccf5 <_ZStplIcSt11char_traitsIcESaIcEENSt7__cxx1112basic_stringIT_T0_T1_EEOS8_PKS5_>
    77c4:	48 8d 45 80          	lea    rax,[rbp-0x80]
    77c8:	48 8d 95 60 ff ff ff 	lea    rdx,[rbp-0xa0]
    77cf:	48 8d 8d 40 ff ff ff 	lea    rcx,[rbp-0xc0]
    77d6:	48 89 ce             	mov    rsi,rcx
    77d9:	48 89 c7             	mov    rdi,rax
    77dc:	e8 09 40 01 00       	call   1b7ea <_ZStplIcSt11char_traitsIcESaIcEENSt7__cxx1112basic_stringIT_T0_T1_EEOS8_S9_>
    77e1:	48 8d 45 a0          	lea    rax,[rbp-0x60]
    77e5:	48 8d 4d 80          	lea    rcx,[rbp-0x80]
    77e9:	48 8d 15 39 29 02 00 	lea    rdx,[rip+0x22939]        # 2a129 <_ZN9__gnu_cxxL21__default_lock_policyE+0xe9>
    77f0:	48 89 ce             	mov    rsi,rcx
    77f3:	48 89 c7             	mov    rdi,rax
    77f6:	e8 fa 54 01 00       	call   1ccf5 <_ZStplIcSt11char_traitsIcESaIcEENSt7__cxx1112basic_stringIT_T0_T1_EEOS8_PKS5_>
    77fb:	48 8b 85 e8 fe ff ff 	mov    rax,QWORD PTR [rbp-0x118]
    7802:	8b 40 40             	mov    eax,DWORD PTR [rax+0x40]
    7805:	48 8d 55 a0          	lea    rdx,[rbp-0x60]
    7809:	89 c6                	mov    esi,eax
    780b:	48 89 df             	mov    rdi,rbx
    780e:	e8 d9 21 01 00       	call   199ec <_ZN6Logger8logRoundEiRKNSt7__cxx1112basic_stringIcSt11char_traitsIcESaIcEEE>
    7813:	48 8d 45 a0          	lea    rax,[rbp-0x60]
    7817:	48 89 c7             	mov    rdi,rax
    781a:	e8 c7 3c 01 00       	call   1b4e6 <_ZNSt7__cxx1112basic_stringIcSt11char_traitsIcESaIcEED1Ev>
    781f:	48 8d 45 80          	lea    rax,[rbp-0x80]
    7823:	48 89 c7             	mov    rdi,rax
    7826:	e8 bb 3c 01 00       	call   1b4e6 <_ZNSt7__cxx1112basic_stringIcSt11char_traitsIcESaIcEED1Ev>
    782b:	48 8d 85 40 ff ff ff 	lea    rax,[rbp-0xc0]
    7832:	48 89 c7             	mov    rdi,rax
    7835:	e8 ac 3c 01 00       	call   1b4e6 <_ZNSt7__cxx1112basic_stringIcSt11char_traitsIcESaIcEED1Ev>
    783a:	48 8d 85 20 ff ff ff 	lea    rax,[rbp-0xe0]
    7841:	48 89 c7             	mov    rdi,rax
    7844:	e8 9d 3c 01 00       	call   1b4e6 <_ZNSt7__cxx1112basic_stringIcSt11char_traitsIcESaIcEED1Ev>
    7849:	48 8d 85 00 ff ff ff 	lea    rax,[rbp-0x100]
    7850:	48 89 c7             	mov    rdi,rax
    7853:	e8 8e 3c 01 00       	call   1b4e6 <_ZNSt7__cxx1112basic_stringIcSt11char_traitsIcESaIcEED1Ev>
    7858:	48 8d 85 60 ff ff ff 	lea    rax,[rbp-0xa0]
    785f:	48 89 c7             	mov    rdi,rax
    7862:	e8 7f 3c 01 00       	call   1b4e6 <_ZNSt7__cxx1112basic_stringIcSt11char_traitsIcESaIcEED1Ev>
    7867:	48 8b 85 e8 fe ff ff 	mov    rax,QWORD PTR [rbp-0x118]
    786e:	48 83 c0 10          	add    rax,0x10
    7872:	48 89 c7             	mov    rdi,rax
    7875:	e8 6c 25 01 00       	call   19de6 <_ZN12PlayerAction12promise_type11return_voidEv>
    787a:	48 8b 85 e8 fe ff ff 	mov    rax,QWORD PTR [rbp-0x118]
    7881:	48 83 c0 50          	add    rax,0x50
    7885:	48 89 c7             	mov    rdi,rax
    7888:	e8 bb 57 01 00       	call   1d048 <_ZNSt6vectorIiSaIiEED1Ev>
    788d:	e9 79 06 00 00       	jmp    7f0b <_ZN5Mafia3actEPZNKS_3actERKSt3mapIi12SmartPointerI6PlayerESt4lessIiESaISt4pairIKiS3_EEEiR6LoggeribE94_ZNK5Mafia3actERKSt3mapIi12SmartPointerI6PlayerESt4lessIiESaISt4pairIKiS3_EEEiR6Loggerib.Frame.actor+0xba7>
    7892:	48 8b 85 e8 fe ff ff 	mov    rax,QWORD PTR [rbp-0x118]
    7899:	48 05 a0 00 00 00    	add    rax,0xa0
    789f:	48 89 c7             	mov    rdi,rax
    78a2:	e8 0f 2a 01 00       	call   1a2b6 <_ZNSt3mapIiiSt4lessIiESaISt4pairIKiiEEEC1Ev>
    78a7:	48 8b 85 e8 fe ff ff 	mov    rax,QWORD PTR [rbp-0x118]
    78ae:	48 8b 50 28          	mov    rdx,QWORD PTR [rax+0x28]
    78b2:	48 8b 85 e8 fe ff ff 	mov    rax,QWORD PTR [rbp-0x118]
    78b9:	48 89 90 e8 00 00 00 	mov    QWORD PTR [rax+0xe8],rdx
    78c0:	48 8b 85 e8 fe ff ff 	mov    rax,QWORD PTR [rbp-0x118]
    78c7:	48 8b 80 e8 00 00 00 	mov    rax,QWORD PTR [rax+0xe8]
    78ce:	48 8b 9d e8 fe ff ff 	mov    rbx,QWORD PTR [rbp-0x118]
    78d5:	48 89 c7             	mov    rdi,rax
    78d8:	e8 b3 57 01 00       	call   1d090 <_ZNKSt3mapIi12SmartPointerI6PlayerESt4lessIiESaISt4pairIKiS2_EEE5beginEv>
    78dd:	48 89 83 f0 00 00 00 	mov    QWORD PTR [rbx+0xf0],rax
    78e4:	48 8b 85 e8 fe ff ff 	mov    rax,QWORD PTR [rbp-0x118]
    78eb:	48 8b 80 e8 00 00 00 	mov    rax,QWORD PTR [rax+0xe8]
    78f2:	48 8b 9d e8 fe ff ff 	mov    rbx,QWORD PTR [rbp-0x118]
    78f9:	48 89 c7             	mov    rdi,rax
    78fc:	e8 ad 57 01 00       	call   1d0ae <_ZNKSt3mapIi12SmartPointerI6PlayerESt4lessIiESaISt4pairIKiS2_EEE3endEv>
    7901:	48 89 83 f8 00 00 00 	mov    QWORD PTR [rbx+0xf8],rax
    7908:	e9 ff 01 00 00       	jmp    7b0c <_ZN5Mafia3actEPZNKS_3actERKSt3mapIi12SmartPointerI6PlayerESt4lessIiESaISt4pairIKiS3_EEEiR6LoggeribE94_ZNK5Mafia3actERKSt3mapIi12SmartPointerI6PlayerESt4lessIiESaISt4pairIKiS3_EEEiR6Loggerib.Frame.actor+0x7a8>
    790d:	48 8b 85 e8 fe ff ff 	mov    rax,QWORD PTR [rbp-0x118]
    7914:	48 05 f0 00 00 00    	add    rax,0xf0
    791a:	48 89 c7             	mov    rdi,rax
    791d:	e8 fc 57 01 00       	call   1d11e <_ZNKSt23_Rb_tree_const_iteratorISt4pairIKi12SmartPointerI6PlayerEEEdeEv>
    7922:	48 8b 95 e8 fe ff ff 	mov    rdx,QWORD PTR [rbp-0x118]
    7929:	48 89 82 d0 00 00 00 	mov    QWORD PTR [rdx+0xd0],rax
    7930:	48 8b 85 e8 fe ff ff 	mov    rax,QWORD PTR [rbp-0x118]
    7937:	48 8b 80 d0 00 00 00 	mov    rax,QWORD PTR [rax+0xd0]
    793e:	48 89 c7             	mov    rdi,rax
    7941:	e8 e5 26 01 00       	call   1a02b <_ZSt3getILm0EKi12SmartPointerI6PlayerEERKNSt13tuple_elementIXT_ESt4pairIT0_T1_EE4typeERKS8_>
    7946:	48 8b 95 e8 fe ff ff 	mov    rdx,QWORD PTR [rbp-0x118]
    794d:	48 89 82 d8 00 00 00 	mov    QWORD PTR [rdx+0xd8],rax
    7954:	48 8b 85 e8 fe ff ff 	mov    rax,QWORD PTR [rbp-0x118]
    795b:	48 8b 80 d0 00 00 00 	mov    rax,QWORD PTR [rax+0xd0]
    7962:	48 89 c7             	mov    rdi,rax
    7965:	e8 df 26 01 00       	call   1a049 <_ZSt3getILm1EKi12SmartPointerI6PlayerEERKNSt13tuple_elementIXT_ESt4pairIT0_T1_EE4typeERKS8_>
    796a:	48 8b 95 e8 fe ff ff 	mov    rdx,QWORD PTR [rbp-0x118]
    7971:	48 89 82 e0 00 00 00 	mov    QWORD PTR [rdx+0xe0],rax
    7978:	bb 00 00 00 00       	mov    ebx,0x0
    797d:	41 be 00 00 00 00    	mov    r14d,0x0
    7983:	48 8b 85 e8 fe ff ff 	mov    rax,QWORD PTR [rbp-0x118]
    798a:	48 8b 80 e0 00 00 00 	mov    rax,QWORD PTR [rax+0xe0]
    7991:	48 89 c7             	mov    rdi,rax
    7994:	e8 65 59 01 00       	call   1d2fe <_ZNK12SmartPointerI6PlayerEptEv>
    7999:	48 8b 10             	mov    rdx,QWORD PTR [rax]
    799c:	48 83 c2 20          	add    rdx,0x20
    79a0:	48 8b 0a             	mov    rcx,QWORD PTR [rdx]
    79a3:	48 8d 55 80          	lea    rdx,[rbp-0x80]
    79a7:	48 89 c6             	mov    rsi,rax
    79aa:	48 89 d7             	mov    rdi,rdx
    79ad:	ff d1                	call   rcx
    79af:	bb 01 00 00 00       	mov    ebx,0x1
    79b4:	48 8d 45 80          	lea    rax,[rbp-0x80]
    79b8:	48 8d 15 23 27 02 00 	lea    rdx,[rip+0x22723]        # 2a0e2 <_ZN9__gnu_cxxL21__default_lock_policyE+0xa2>
    79bf:	48 89 d6             	mov    rsi,rdx
    79c2:	48 89 c7             	mov    rdi,rax
    79c5:	e8 49 59 01 00       	call   1d313 <_ZSteqIcSt11char_traitsIcESaIcEEbRKNSt7__cxx1112basic_stringIT_T0_T1_EEPKS5_>
    79ca:	84 c0                	test   al,al
    79cc:	75 4c                	jne    7a1a <_ZN5Mafia3actEPZNKS_3actERKSt3mapIi12SmartPointerI6PlayerESt4lessIiESaISt4pairIKiS3_EEEiR6LoggeribE94_ZNK5Mafia3actERKSt3mapIi12SmartPointerI6PlayerESt4lessIiESaISt4pairIKiS3_EEEiR6Loggerib.Frame.actor+0x6b6>
    79ce:	48 8b 85 e8 fe ff ff 	mov    rax,QWORD PTR [rbp-0x118]
    79d5:	48 8b 80 e0 00 00 00 	mov    rax,QWORD PTR [rax+0xe0]
    79dc:	48 89 c7             	mov    rdi,rax
    79df:	e8 1a 59 01 00       	call   1d2fe <_ZNK12SmartPointerI6PlayerEptEv>
    79e4:	48 8b 10             	mov    rdx,QWORD PTR [rax]
    79e7:	48 83 c2 20          	add    rdx,0x20
    79eb:	48 8b 0a             	mov    rcx,QWORD PTR [rdx]
    79ee:	48 8d 55 a0          	lea    rdx,[rbp-0x60]
    79f2:	48 89 c6             	mov    rsi,rax
    79f5:	48 89 d7             	mov    rdi,rdx
    79f8:	ff d1                	call   rcx
    79fa:	41 be 01 00 00 00    	mov    r14d,0x1
    7a00:	48 8d 45 a0          	lea    rax,[rbp-0x60]
    7a04:	48 8d 15 e2 26 02 00 	lea    rdx,[rip+0x226e2]        # 2a0ed <_ZN9__gnu_cxxL21__default_lock_policyE+0xad>
    7a0b:	48 89 d6             	mov    rsi,rdx
    7a0e:	48 89 c7             	mov    rdi,rax
    7a11:	e8 fd 58 01 00       	call   1d313 <_ZSteqIcSt11char_traitsIcESaIcEEbRKNSt7__cxx1112basic_stringIT_T0_T1_EEPKS5_>
    7a16:	84 c0                	test   al,al
    7a18:	74 08                	je     7a22 <_ZN5Mafia3actEPZNKS_3actERKSt3mapIi12SmartPointerI6PlayerESt4lessIiESaISt4pairIKiS3_EEEiR6LoggeribE94_ZNK5Mafia3actERKSt3mapIi12SmartPointerI6PlayerESt4lessIiESaISt4pairIKiS3_EEEiR6Loggerib.Frame.actor+0x6be>
    7a1a:	41 bf 01 00 00 00    	mov    r15d,0x1
    7a20:	eb 06                	jmp    7a28 <_ZN5Mafia3actEPZNKS_3actERKSt3mapIi12SmartPointerI6PlayerESt4lessIiESaISt4pairIKiS3_EEEiR6LoggeribE94_ZNK5Mafia3actERKSt3mapIi12SmartPointerI6PlayerESt4lessIiESaISt4pairIKiS3_EEEiR6Loggerib.Frame.actor+0x6c4>
    7a22:	41 bf 00 00 00 00    	mov    r15d,0x0
    7a28:	45 84 f6             	test   r14b,r14b
    7a2b:	74 0c                	je     7a39 <_ZN5Mafia3actEPZNKS_3actERKSt3mapIi12SmartPointerI6PlayerESt4lessIiESaISt4pairIKiS3_EEEiR6LoggeribE94_ZNK5Mafia3actERKSt3mapIi12SmartPointerI6PlayerESt4lessIiESaISt4pairIKiS3_EEEiR6Loggerib.Frame.actor+0x6d5>
    7a2d:	48 8d 45 a0          	lea    rax,[rbp-0x60]
    7a31:	48 89 c7             	mov    rdi,rax
    7a34:	e8 ad 3a 01 00       	call   1b4e6 <_ZNSt7__cxx1112basic_stringIcSt11char_traitsIcESaIcEED1Ev>
    7a39:	84 db                	test   bl,bl
    7a3b:	74 0c                	je     7a49 <_ZN5Mafia3actEPZNKS_3actERKSt3mapIi12SmartPointerI6PlayerESt4lessIiESaISt4pairIKiS3_EEEiR6LoggeribE94_ZNK5Mafia3actERKSt3mapIi12SmartPointerI6PlayerESt4lessIiESaISt4pairIKiS3_EEEiR6Loggerib.Frame.actor+0x6e5>
    7a3d:	48 8d 45 80          	lea    rax,[rbp-0x80]
    7a41:	48 89 c7             	mov    rdi,rax
    7a44:	e8 9d 3a 01 00       	call   1b4e6 <_ZNSt7__cxx1112basic_stringIcSt11char_traitsIcESaIcEED1Ev>
    7a49:	45 84 ff             	test   r15b,r15b
    7a4c:	0f 84 a5 00 00 00    	je     7af7 <_ZN5Mafia3actEPZNKS_3actERKSt3mapIi12SmartPointerI6PlayerESt4lessIiESaISt4pairIKiS3_EEEiR6LoggeribE94_ZNK5Mafia3actERKSt3mapIi12SmartPointerI6PlayerESt4lessIiESaISt4pairIKiS3_EEEiR6Loggerib.Frame.actor+0x793>
    7a52:	48 8b 85 e8 fe ff ff 	mov    rax,QWORD PTR [rbp-0x118]
    7a59:	48 8b 80 e0 00 00 00 	mov    rax,QWORD PTR [rax+0xe0]
    7a60:	48 89 c7             	mov    rdi,rax
    7a63:	e8 de 59 01 00       	call   1d446 <_ZNK12SmartPointerI6PlayerE3getEv>
    7a68:	48 85 c0             	test   rax,rax
    7a6b:	74 1d                	je     7a8a <_ZN5Mafia3actEPZNKS_3actERKSt3mapIi12SmartPointerI6PlayerESt4lessIiESaISt4pairIKiS3_EEEiR6LoggeribE94_ZNK5Mafia3actERKSt3mapIi12SmartPointerI6PlayerESt4lessIiESaISt4pairIKiS3_EEEiR6Loggerib.Frame.actor+0x726>
    7a6d:	b9 00 00 00 00       	mov    ecx,0x0
    7a72:	48 8d 15 df 6f 03 00 	lea    rdx,[rip+0x36fdf]        # 3ea58 <_ZTVN10__cxxabiv120__si_class_type_infoE@CXXABI_1.3>
    7a79:	48 8d 35 08 70 03 00 	lea    rsi,[rip+0x37008]        # 3ea88 <_ZTVN10__cxxabiv117__class_type_infoE@CXXABI_1.3>
    7a80:	48 89 c7             	mov    rdi,rax
    7a83:	e8 c8 ed ff ff       	call   6850 <__dynamic_cast@plt>
    7a88:	eb 05                	jmp    7a8f <_ZN5Mafia3actEPZNKS_3actERKSt3mapIi12SmartPointerI6PlayerESt4lessIiESaISt4pairIKiS3_EEEiR6LoggeribE94_ZNK5Mafia3actERKSt3mapIi12SmartPointerI6PlayerESt4lessIiESaISt4pairIKiS3_EEEiR6Loggerib.Frame.actor+0x72b>
    7a8a:	b8 00 00 00 00       	mov    eax,0x0
    7a8f:	48 8b 95 e8 fe ff ff 	mov    rdx,QWORD PTR [rbp-0x118]
    7a96:	48 89 82 00 01 00 00 	mov    QWORD PTR [rdx+0x100],rax
    7a9d:	48 8b 85 e8 fe ff ff 	mov    rax,QWORD PTR [rbp-0x118]
    7aa4:	48 8b 80 00 01 00 00 	mov    rax,QWORD PTR [rax+0x100]
    7aab:	48 85 c0             	test   rax,rax
    7aae:	74 47                	je     7af7 <_ZN5Mafia3actEPZNKS_3actERKSt3mapIi12SmartPointerI6PlayerESt4lessIiESaISt4pairIKiS3_EEEiR6LoggeribE94_ZNK5Mafia3actERKSt3mapIi12SmartPointerI6PlayerESt4lessIiESaISt4pairIKiS3_EEEiR6Loggerib.Frame.actor+0x793>
    7ab0:	48 8b 85 e8 fe ff ff 	mov    rax,QWORD PTR [rbp-0x118]
    7ab7:	48 8b 80 00 01 00 00 	mov    rax,QWORD PTR [rax+0x100]
    7abe:	8b 40 10             	mov    eax,DWORD PTR [rax+0x10]
    7ac1:	83 f8 ff             	cmp    eax,0xffffffff
    7ac4:	74 31                	je     7af7 <_ZN5Mafia3actEPZNKS_3actERKSt3mapIi12SmartPointerI6PlayerESt4lessIiESaISt4pairIKiS3_EEEiR6LoggeribE94_ZNK5Mafia3actERKSt3mapIi12SmartPointerI6PlayerESt4lessIiESaISt4pairIKiS3_EEEiR6Loggerib.Frame.actor+0x793>
    7ac6:	48 8b 85 e8 fe ff ff 	mov    rax,QWORD PTR [rbp-0x118]
    7acd:	48 05 a0 00 00 00    	add    rax,0xa0
    7ad3:	48 8b 95 e8 fe ff ff 	mov    rdx,QWORD PTR [rbp-0x118]
    7ada:	48 8b 92 00 01 00 00 	mov    rdx,QWORD PTR [rdx+0x100]
    7ae1:	48 83 c2 10          	add    rdx,0x10
    7ae5:	48 89 d6             	mov    rsi,rdx
    7ae8:	48 89 c7             	mov    rdi,rax
    7aeb:	e8 6c 59 01 00       	call   1d45c <_ZNSt3mapIiiSt4lessIiESaISt4pairIKiiEEEixERS3_>
    7af0:	8b 10                	mov    edx,DWORD PTR [rax]
    7af2:	83 c2 01             	add    edx,0x1
    7af5:	89 10                	mov    DWORD PTR [rax],edx
    7af7:	48 8b 85 e8 fe ff ff 	mov    rax,QWORD PTR [rbp-0x118]
    7afe:	48 05 f0 00 00 00    	add    rax,0xf0
    7b04:	48 89 c7             	mov    rdi,rax
    7b07:	e8 e6 55 01 00       	call   1d0f2 <_ZNSt23_Rb_tree_const_iteratorISt4pairIKi12SmartPointerI6PlayerEEEppEv>
    7b0c:	48 8b 85 e8 fe ff ff 	mov    rax,QWORD PTR [rbp-0x118]
    7b13:	48 8d 90 f8 00 00 00 	lea    rdx,[rax+0xf8]
    7b1a:	48 8b 85 e8 fe ff ff 	mov    rax,QWORD PTR [rbp-0x118]
    7b21:	48 05 f0 00 00 00    	add    rax,0xf0
    7b27:	48 89 d6             	mov    rsi,rdx
    7b2a:	48 89 c7             	mov    rdi,rax
    7b2d:	e8 9a 55 01 00       	call   1d0cc <_ZSteqRKSt23_Rb_tree_const_iteratorISt4pairIKi12SmartPointerI6PlayerEEES8_>
    7b32:	83 f0 01             	xor    eax,0x1
    7b35:	84 c0                	test   al,al
    7b37:	0f 85 d0 fd ff ff    	jne    790d <_ZN5Mafia3actEPZNKS_3actERKSt3mapIi12SmartPointerI6PlayerESt4lessIiESaISt4pairIKiS3_EEEiR6LoggeribE94_ZNK5Mafia3actERKSt3mapIi12SmartPointerI6PlayerESt4lessIiESaISt4pairIKiS3_EEEiR6Loggerib.Frame.actor+0x5a9>
    7b3d:	48 8b 85 e8 fe ff ff 	mov    rax,QWORD PTR [rbp-0x118]
    7b44:	48 05 a0 00 00 00    	add    rax,0xa0
    7b4a:	48 89 c7             	mov    rdi,rax
    7b4d:	e8 2a 5a 01 00       	call   1d57c <_ZNKSt3mapIiiSt4lessIiESaISt4pairIKiiEEE5emptyEv>
    7b52:	83 f0 01             	xor    eax,0x1
    7b55:	84 c0                	test   al,al
    7b57:	0f 84 85 03 00 00    	je     7ee2 <_ZN5Mafia3actEPZNKS_3actERKSt3mapIi12SmartPointerI6PlayerESt4lessIiESaISt4pairIKiS3_EEEiR6LoggeribE94_ZNK5Mafia3actERKSt3mapIi12SmartPointerI6PlayerESt4lessIiESaISt4pairIKiS3_EEEiR6Loggerib.Frame.actor+0xb7e>
    7b5d:	48 8b 85 e8 fe ff ff 	mov    rax,QWORD PTR [rbp-0x118]
    7b64:	c7 80 08 01 00 00 00 	mov    DWORD PTR [rax+0x108],0x0
    7b6b:	00 00 00 
    7b6e:	48 8b 85 e8 fe ff ff 	mov    rax,QWORD PTR [rbp-0x118]
    7b75:	48 05 10 01 00 00    	add    rax,0x110
    7b7b:	48 89 c7             	mov    rdi,rax
    7b7e:	e8 89 24 01 00       	call   1a00c <_ZNSt6vectorIiSaIiEEC1Ev>
    7b83:	48 8b 85 e8 fe ff ff 	mov    rax,QWORD PTR [rbp-0x118]
    7b8a:	48 8d 90 a0 00 00 00 	lea    rdx,[rax+0xa0]
    7b91:	48 8b 85 e8 fe ff ff 	mov    rax,QWORD PTR [rbp-0x118]
    7b98:	48 89 90 48 01 00 00 	mov    QWORD PTR [rax+0x148],rdx
    7b9f:	48 8b 85 e8 fe ff ff 	mov    rax,QWORD PTR [rbp-0x118]
    7ba6:	48 8b 80 48 01 00 00 	mov    rax,QWORD PTR [rax+0x148]
    7bad:	48 8b 9d e8 fe ff ff 	mov    rbx,QWORD PTR [rbp-0x118]
    7bb4:	48 89 c7             	mov    rdi,rax
    7bb7:	e8 de 59 01 00       	call   1d59a <_ZNSt3mapIiiSt4lessIiESaISt4pairIKiiEEE5beginEv>
    7bbc:	48 89 83 50 01 00 00 	mov    QWORD PTR [rbx+0x150],rax
    7bc3:	48 8b 85 e8 fe ff ff 	mov    rax,QWORD PTR [rbp-0x118]
    7bca:	48 8b 80 48 01 00 00 	mov    rax,QWORD PTR [rax+0x148]
    7bd1:	48 8b 9d e8 fe ff ff 	mov    rbx,QWORD PTR [rbp-0x118]
    7bd8:	48 89 c7             	mov    rdi,rax
    7bdb:	e8 d8 59 01 00       	call   1d5b8 <_ZNSt3mapIiiSt4lessIiESaISt4pairIKiiEEE3endEv>
    7be0:	48 89 83 58 01 00 00 	mov    QWORD PTR [rbx+0x158],rax
    7be7:	e9 4c 01 00 00       	jmp    7d38 <_ZN5Mafia3actEPZNKS_3actERKSt3mapIi12SmartPointerI6PlayerESt4lessIiESaISt4pairIKiS3_EEEiR6LoggeribE94_ZNK5Mafia3actERKSt3mapIi12SmartPointerI6PlayerESt4lessIiESaISt4pairIKiS3_EEEiR6Loggerib.Frame.actor+0x9d4>
    7bec:	48 8b 85 e8 fe ff ff 	mov    rax,QWORD PTR [rbp-0x118]
    7bf3:	48 05 50 01 00 00    	add    rax,0x150
    7bf9:	48 89 c7             	mov    rdi,rax
    7bfc:	e8 27 5a 01 00       	call   1d628 <_ZNKSt17_Rb_tree_iteratorISt4pairIKiiEEdeEv>
    7c01:	48 8b 95 e8 fe ff ff 	mov    rdx,QWORD PTR [rbp-0x118]
    7c08:	48 89 82 30 01 00 00 	mov    QWORD PTR [rdx+0x130],rax
    7c0f:	48 8b 85 e8 fe ff ff 	mov    rax,QWORD PTR [rbp-0x118]
    7c16:	48 8b 80 30 01 00 00 	mov    rax,QWORD PTR [rax+0x130]
    7c1d:	48 89 c7             	mov    rdi,rax
    7c20:	e8 d0 26 01 00       	call   1a2f5 <_ZSt3getILm0EKiiERKNSt13tuple_elementIXT_ESt4pairIT0_T1_EE4typeERKS5_>
    7c25:	48 8b 95 e8 fe ff ff 	mov    rdx,QWORD PTR [rbp-0x118]
    7c2c:	48 89 82 38 01 00 00 	mov    QWORD PTR [rdx+0x138],rax
    7c33:	48 8b 85 e8 fe ff ff 	mov    rax,QWORD PTR [rbp-0x118]
    7c3a:	48 8b 80 30 01 00 00 	mov    rax,QWORD PTR [rax+0x130]
    7c41:	48 89 c7             	mov    rdi,rax
    7c44:	e8 ca 26 01 00       	call   1a313 <_ZSt3getILm1EKiiERKNSt13tuple_elementIXT_ESt4pairIT0_T1_EE4typeERKS5_>
    7c49:	48 8b 95 e8 fe ff ff 	mov    rdx,QWORD PTR [rbp-0x118]
    7c50:	48 89 82 40 01 00 00 	mov    QWORD PTR [rdx+0x140],rax
    7c57:	48 8b 85 e8 fe ff ff 	mov    rax,QWORD PTR [rbp-0x118]
    7c5e:	48 8b 80 40 01 00 00 	mov    rax,QWORD PTR [rax+0x140]
    7c65:	8b 10                	mov    edx,DWORD PTR [rax]
    7c67:	48 8b 85 e8 fe ff ff 	mov    rax,QWORD PTR [rbp-0x118]
    7c6e:	8b 80 08 01 00 00    	mov    eax,DWORD PTR [rax+0x108]
    7c74:	39 c2                	cmp    edx,eax
    7c76:	7e 63                	jle    7cdb <_ZN5Mafia3actEPZNKS_3actERKSt3mapIi12SmartPointerI6PlayerESt4lessIiESaISt4pairIKiS3_EEEiR6LoggeribE94_ZNK5Mafia3actERKSt3mapIi12SmartPointerI6PlayerESt4lessIiESaISt4pairIKiS3_EEEiR6Loggerib.Frame.actor+0x977>
    7c78:	48 8b 85 e8 fe ff ff 	mov    rax,QWORD PTR [rbp-0x118]
    7c7f:	48 8b 80 40 01 00 00 	mov    rax,QWORD PTR [rax+0x140]
    7c86:	8b 10                	mov    edx,DWORD PTR [rax]
    7c88:	48 8b 85 e8 fe ff ff 	mov    rax,QWORD PTR [rbp-0x118]
    7c8f:	89 90 08 01 00 00    	mov    DWORD PTR [rax+0x108],edx
    7c95:	48 8b 85 e8 fe ff ff 	mov    rax,QWORD PTR [rbp-0x118]
    7c9c:	48 8b 80 38 01 00 00 	mov    rax,QWORD PTR [rax+0x138]
    7ca3:	8b 00                	mov    eax,DWORD PTR [rax]
    7ca5:	89 45 a0             	mov    DWORD PTR [rbp-0x60],eax
    7ca8:	48 8d 45 a0          	lea    rax,[rbp-0x60]
    7cac:	49 89 c4             	mov    r12,rax
    7caf:	41 bd 01 00 00 00    	mov    r13d,0x1
    7cb5:	48 8b 85 e8 fe ff ff 	mov    rax,QWORD PTR [rbp-0x118]
    7cbc:	48 05 10 01 00 00    	add    rax,0x110
    7cc2:	4c 89 e6             	mov    rsi,r12
    7cc5:	4c 89 ef             	mov    rdi,r13
    7cc8:	4c 89 e1             	mov    rcx,r12
    7ccb:	4c 89 eb             	mov    rbx,r13
    7cce:	48 89 da             	mov    rdx,rbx
    7cd1:	48 89 c7             	mov    rdi,rax
    7cd4:	e8 99 59 01 00       	call   1d672 <_ZNSt6vectorIiSaIiEEaSESt16initializer_listIiE>
    7cd9:	eb 48                	jmp    7d23 <_ZN5Mafia3actEPZNKS_3actERKSt3mapIi12SmartPointerI6PlayerESt4lessIiESaISt4pairIKiS3_EEEiR6LoggeribE94_ZNK5Mafia3actERKSt3mapIi12SmartPointerI6PlayerESt4lessIiESaISt4pairIKiS3_EEEiR6Loggerib.Frame.actor+0x9bf>
    7cdb:	48 8b 85 e8 fe ff ff 	mov    rax,QWORD PTR [rbp-0x118]
    7ce2:	48 8b 80 40 01 00 00 	mov    rax,QWORD PTR [rax+0x140]
    7ce9:	8b 10                	mov    edx,DWORD PTR [rax]
    7ceb:	48 8b 85 e8 fe ff ff 	mov    rax,QWORD PTR [rbp-0x118]
    7cf2:	8b 80 08 01 00 00    	mov    eax,DWORD PTR [rax+0x108]
    7cf8:	39 c2                	cmp    edx,eax
    7cfa:	75 27                	jne    7d23 <_ZN5Mafia3actEPZNKS_3actERKSt3mapIi12SmartPointerI6PlayerESt4lessIiESaISt4pairIKiS3_EEEiR6LoggeribE94_ZNK5Mafia3actERKSt3mapIi12SmartPointerI6PlayerESt4lessIiESaISt4pairIKiS3_EEEiR6Loggerib.Frame.actor+0x9bf>
    7cfc:	48 8b 85 e8 fe ff ff 	mov    rax,QWORD PTR [rbp-0x118]
    7d03:	48 8d 90 10 01 00 00 	lea    rdx,[rax+0x110]
    7d0a:	48 8b 85 e8 fe ff ff 	mov    rax,QWORD PTR [rbp-0x118]
    7d11:	48 8b 80 38 01 00 00 	mov    rax,QWORD PTR [rax+0x138]
    7d18:	48 89 c6             	mov    rsi,rax
    7d1b:	48 89 d7             	mov    rdi,rdx
    7d1e:	e8 45 54 01 00       	call   1d168 <_ZNSt6vectorIiSaIiEE9push_backERKi>
    7d23:	48 8b 85 e8 fe ff ff 	mov    rax,QWORD PTR [rbp-0x118]
    7d2a:	48 05 50 01 00 00    	add    rax,0x150
    7d30:	48 89 c7             	mov    rdi,rax
    7d33:	e8 c4 58 01 00       	call   1d5fc <_ZNSt17_Rb_tree_iteratorISt4pairIKiiEEppEv>
    7d38:	48 8b 85 e8 fe ff ff 	mov    rax,QWORD PTR [rbp-0x118]
    7d3f:	48 8d 90 58 01 00 00 	lea    rdx,[rax+0x158]
    7d46:	48 8b 85 e8 fe ff ff 	mov    rax,QWORD PTR [rbp-0x118]
    7d4d:	48 05 50 01 00 00    	add    rax,0x150
    7d53:	48 89 d6             	mov    rsi,rdx
    7d56:	48 89 c7             	mov    rdi,rax
    7d59:	e8 78 58 01 00       	call   1d5d6 <_ZSteqRKSt17_Rb_tree_iteratorISt4pairIKiiEES5_>
    7d5e:	83 f0 01             	xor    eax,0x1
    7d61:	84 c0                	test   al,al
    7d63:	0f 85 83 fe ff ff    	jne    7bec <_ZN5Mafia3actEPZNKS_3actERKSt3mapIi12SmartPointerI6PlayerESt4lessIiESaISt4pairIKiS3_EEEiR6LoggeribE94_ZNK5Mafia3actERKSt3mapIi12SmartPointerI6PlayerESt4lessIiESaISt4pairIKiS3_EEEiR6Loggerib.Frame.actor+0x888>
    7d69:	48 8b 85 e8 fe ff ff 	mov    rax,QWORD PTR [rbp-0x118]
    7d70:	48 05 10 01 00 00    	add    rax,0x110
    7d76:	48 89 c7             	mov    rdi,rax
    7d79:	e8 69 54 01 00       	call   1d1e7 <_Z13choose_randomIiET_RKSt6vectorIS0_SaIS0_EE>
    7d7e:	48 8b 95 e8 fe ff ff 	mov    rdx,QWORD PTR [rbp-0x118]
    7d85:	89 82 28 01 00 00    	mov    DWORD PTR [rdx+0x128],eax
    7d8b:	48 8b 85 e8 fe ff ff 	mov    rax,QWORD PTR [rbp-0x118]
    7d92:	48 8b 40 20          	mov    rax,QWORD PTR [rax+0x20]
    7d96:	48 8b 95 e8 fe ff ff 	mov    rdx,QWORD PTR [rbp-0x118]
    7d9d:	8b 92 28 01 00 00    	mov    edx,DWORD PTR [rdx+0x128]
    7da3:	89 50 10             	mov    DWORD PTR [rax+0x10],edx
    7da6:	48 8b 85 e8 fe ff ff 	mov    rax,QWORD PTR [rbp-0x118]
    7dad:	48 8b 58 38          	mov    rbx,QWORD PTR [rax+0x38]
    7db1:	48 8b 85 e8 fe ff ff 	mov    rax,QWORD PTR [rbp-0x118]
    7db8:	8b 90 28 01 00 00    	mov    edx,DWORD PTR [rax+0x128]
    7dbe:	48 8d 85 60 ff ff ff 	lea    rax,[rbp-0xa0]
    7dc5:	89 d6                	mov    esi,edx
    7dc7:	48 89 c7             	mov    rdi,rax
    7dca:	e8 f2 05 01 00       	call   183c1 <_ZNSt7__cxx119to_stringEi>
    7dcf:	48 8b 85 e8 fe ff ff 	mov    rax,QWORD PTR [rbp-0x118]
    7dd6:	8b 50 30             	mov    edx,DWORD PTR [rax+0x30]
    7dd9:	48 8d 85 00 ff ff ff 	lea    rax,[rbp-0x100]
    7de0:	89 d6                	mov    esi,edx
    7de2:	48 89 c7             	mov    rdi,rax
    7de5:	e8 d7 05 01 00       	call   183c1 <_ZNSt7__cxx119to_stringEi>
    7dea:	48 8d 85 20 ff ff ff 	lea    rax,[rbp-0xe0]
    7df1:	48 8d 95 00 ff ff ff 	lea    rdx,[rbp-0x100]
    7df8:	48 8d 0d 44 23 02 00 	lea    rcx,[rip+0x22344]        # 2a143 <_ZN9__gnu_cxxL21__default_lock_policyE+0x103>
    7dff:	48 89 ce             	mov    rsi,rcx
    7e02:	48 89 c7             	mov    rdi,rax
    7e05:	e8 c9 3a 01 00       	call   1b8d3 <_ZStplIcSt11char_traitsIcESaIcEENSt7__cxx1112basic_stringIT_T0_T1_EEPKS5_OS8_>
    7e0a:	48 8d 85 40 ff ff ff 	lea    rax,[rbp-0xc0]
    7e11:	48 8d 8d 20 ff ff ff 	lea    rcx,[rbp-0xe0]
    7e18:	48 8d 15 6f 22 02 00 	lea    rdx,[rip+0x2226f]        # 2a08e <_ZN9__gnu_cxxL21__default_lock_policyE+0x4e>
    7e1f:	48 89 ce             	mov    rsi,rcx
    7e22:	48 89 c7             	mov    rdi,rax
    7e25:	e8 cb 4e 01 00       	call   1ccf5 <_ZStplIcSt11char_traitsIcESaIcEENSt7__cxx1112basic_stringIT_T0_T1_EEOS8_PKS5_>
    7e2a:	48 8d 45 80          	lea    rax,[rbp-0x80]
    7e2e:	48 8d 95 60 ff ff ff 	lea    rdx,[rbp-0xa0]
    7e35:	48 8d 8d 40 ff ff ff 	lea    rcx,[rbp-0xc0]
    7e3c:	48 89 ce             	mov    rsi,rcx
    7e3f:	48 89 c7             	mov    rdi,rax
    7e42:	e8 a3 39 01 00       	call   1b7ea <_ZStplIcSt11char_traitsIcESaIcEENSt7__cxx1112basic_stringIT_T0_T1_EEOS8_S9_>
    7e47:	48 8d 45 a0          	lea    rax,[rbp-0x60]
    7e4b:	48 8d 4d 80          	lea    rcx,[rbp-0x80]
    7e4f:	48 8d 15 02 23 02 00 	lea    rdx,[rip+0x22302]        # 2a158 <_ZN9__gnu_cxxL21__default_lock_policyE+0x118>
    7e56:	48 89 ce             	mov    rsi,rcx
    7e59:	48 89 c7             	mov    rdi,rax
    7e5c:	e8 94 4e 01 00       	call   1ccf5 <_ZStplIcSt11char_traitsIcESaIcEENSt7__cxx1112basic_stringIT_T0_T1_EEOS8_PKS5_>
    7e61:	48 8b 85 e8 fe ff ff 	mov    rax,QWORD PTR [rbp-0x118]
    7e68:	8b 40 40             	mov    eax,DWORD PTR [rax+0x40]
    7e6b:	48 8d 55 a0          	lea    rdx,[rbp-0x60]
    7e6f:	89 c6                	mov    esi,eax
    7e71:	48 89 df             	mov    rdi,rbx
    7e74:	e8 73 1b 01 00       	call   199ec <_ZN6Logger8logRoundEiRKNSt7__cxx1112basic_stringIcSt11char_traitsIcESaIcEEE>
    7e79:	48 8d 45 a0          	lea    rax,[rbp-0x60]
    7e7d:	48 89 c7             	mov    rdi,rax
    7e80:	e8 61 36 01 00       	call   1b4e6 <_ZNSt7__cxx1112basic_stringIcSt11char_traitsIcESaIcEED1Ev>
    7e85:	48 8d 45 80          	lea    rax,[rbp-0x80]
    7e89:	48 89 c7             	mov    rdi,rax
    7e8c:	e8 55 36 01 00       	call   1b4e6 <_ZNSt7__cxx1112basic_stringIcSt11char_traitsIcESaIcEED1Ev>
    7e91:	48 8d 85 40 ff ff ff 	lea    rax,[rbp-0xc0]
    7e98:	48 89 c7             	mov    rdi,rax
    7e9b:	e8 46 36 01 00       	call   1b4e6 <_ZNSt7__cxx1112basic_stringIcSt11char_traitsIcESaIcEED1Ev>
    7ea0:	48 8d 85 20 ff ff ff 	lea    rax,[rbp-0xe0]
    7ea7:	48 89 c7             	mov    rdi,rax
    7eaa:	e8 37 36 01 00       	call   1b4e6 <_ZNSt7__cxx1112basic_stringIcSt11char_traitsIcESaIcEED1Ev>
    7eaf:	48 8d 85 00 ff ff ff 	lea    rax,[rbp-0x100]
    7eb6:	48 89 c7             	mov    rdi,rax
    7eb9:	e8 28 36 01 00       	call   1b4e6 <_ZNSt7__cxx1112basic_stringIcSt11char_traitsIcESaIcEED1Ev>
    7ebe:	48 8d 85 60 ff ff ff 	lea    rax,[rbp-0xa0]
    7ec5:	48 89 c7             	mov    rdi,rax
    7ec8:	e8 19 36 01 00       	call   1b4e6 <_ZNSt7__cxx1112basic_stringIcSt11char_traitsIcESaIcEED1Ev>
    7ecd:	48 8b 85 e8 fe ff ff 	mov    rax,QWORD PTR [rbp-0x118]
    7ed4:	48 05 10 01 00 00    	add    rax,0x110
    7eda:	48 89 c7             	mov    rdi,rax
    7edd:	e8 66 51 01 00       	call   1d048 <_ZNSt6vectorIiSaIiEED1Ev>
    7ee2:	48 8b 85 e8 fe ff ff 	mov    rax,QWORD PTR [rbp-0x118]
    7ee9:	48 83 c0 10          	add    rax,0x10
    7eed:	48 89 c7             	mov    rdi,rax
    7ef0:	e8 f1 1e 01 00       	call   19de6 <_ZN12PlayerAction12promise_type11return_voidEv>
    7ef5:	90                   	nop
    7ef6:	48 8b 85 e8 fe ff ff 	mov    rax,QWORD PTR [rbp-0x118]
    7efd:	48 05 a0 00 00 00    	add    rax,0xa0
    7f03:	48 89 c7             	mov    rdi,rax
    7f06:	e8 cb 23 01 00       	call   1a2d6 <_ZNSt3mapIiiSt4lessIiESaISt4pairIKiiEEED1Ev>
    7f0b:	48 8b 85 e8 fe ff ff 	mov    rax,QWORD PTR [rbp-0x118]
    7f12:	48 c7 00 00 00 00 00 	mov    QWORD PTR [rax],0x0
    7f19:	48 8b 85 e8 fe ff ff 	mov    rax,QWORD PTR [rbp-0x118]
    7f20:	48 83 c0 10          	add    rax,0x10
    7f24:	48 89 c7             	mov    rdi,rax
    7f27:	e8 aa 1e 01 00       	call   19dd6 <_ZN12PlayerAction12promise_type13final_suspendEv>
    7f2c:	48 8b 85 e8 fe ff ff 	mov    rax,QWORD PTR [rbp-0x118]
    7f33:	48 05 60 01 00 00    	add    rax,0x160
    7f39:	48 89 c7             	mov    rdi,rax
    7f3c:	e8 f9 15 01 00       	call   1953a <_ZNKSt7__n486114suspend_always11await_readyEv>
    7f41:	83 f0 01             	xor    eax,0x1
    7f44:	84 c0                	test   al,al
    7f46:	74 3d                	je     7f85 <_ZN5Mafia3actEPZNKS_3actERKSt3mapIi12SmartPointerI6PlayerESt4lessIiESaISt4pairIKiS3_EEEiR6LoggeribE94_ZNK5Mafia3actERKSt3mapIi12SmartPointerI6PlayerESt4lessIiESaISt4pairIKiS3_EEEiR6Loggerib.Frame.actor+0xc21>
    7f48:	48 8b 85 e8 fe ff ff 	mov    rax,QWORD PTR [rbp-0x118]
    7f4f:	66 c7 40 46 04 00    	mov    WORD PTR [rax+0x46],0x4
    7f55:	48 8b 85 e8 fe ff ff 	mov    rax,QWORD PTR [rbp-0x118]
    7f5c:	48 8d 98 60 01 00 00 	lea    rbx,[rax+0x160]
    7f63:	48 8b 85 e8 fe ff ff 	mov    rax,QWORD PTR [rbp-0x118]
    7f6a:	48 83 c0 18          	add    rax,0x18
    7f6e:	48 89 c7             	mov    rdi,rax
    7f71:	e8 d4 4f 01 00       	call   1cf4a <_ZNKSt7__n486116coroutine_handleIN12PlayerAction12promise_typeEEcvNS0_IvEEEv>
    7f76:	48 89 c6             	mov    rsi,rax
    7f79:	48 89 df             	mov    rdi,rbx
    7f7c:	e8 cd 15 01 00       	call   1954e <_ZNKSt7__n486114suspend_always13await_suspendENS_16coroutine_handleIvEE>
    7f81:	eb 44                	jmp    7fc7 <_ZN5Mafia3actEPZNKS_3actERKSt3mapIi12SmartPointerI6PlayerESt4lessIiESaISt4pairIKiS3_EEEiR6LoggeribE94_ZNK5Mafia3actERKSt3mapIi12SmartPointerI6PlayerESt4lessIiESaISt4pairIKiS3_EEEiR6Loggerib.Frame.actor+0xc63>
    7f83:	eb 18                	jmp    7f9d <_ZN5Mafia3actEPZNKS_3actERKSt3mapIi12SmartPointerI6PlayerESt4lessIiESaISt4pairIKiS3_EEEiR6LoggeribE94_ZNK5Mafia3actERKSt3mapIi12SmartPointerI6PlayerESt4lessIiESaISt4pairIKiS3_EEEiR6Loggerib.Frame.actor+0xc39>
    7f85:	48 8b 85 e8 fe ff ff 	mov    rax,QWORD PTR [rbp-0x118]
    7f8c:	48 05 60 01 00 00    	add    rax,0x160
    7f92:	48 89 c7             	mov    rdi,rax
    7f95:	e8 c8 15 01 00       	call   19562 <_ZNKSt7__n486114suspend_always12await_resumeEv>
    7f9a:	eb 01                	jmp    7f9d <_ZN5Mafia3actEPZNKS_3actERKSt3mapIi12SmartPointerI6PlayerESt4lessIiESaISt4pairIKiS3_EEEiR6LoggeribE94_ZNK5Mafia3actERKSt3mapIi12SmartPointerI6PlayerESt4lessIiESaISt4pairIKiS3_EEEiR6Loggerib.Frame.actor+0xc39>
    7f9c:	90                   	nop
    7f9d:	48 8b 85 e8 fe ff ff 	mov    rax,QWORD PTR [rbp-0x118]
    7fa4:	0f b6 40 48          	movzx  eax,BYTE PTR [rax+0x48]
    7fa8:	0f b6 c0             	movzx  eax,al
    7fab:	85 c0                	test   eax,eax
    7fad:	0f 84 61 02 00 00    	je     8214 <_ZN5Mafia3actEPZNKS_3actERKSt3mapIi12SmartPointerI6PlayerESt4lessIiESaISt4pairIKiS3_EEEiR6LoggeribE94_ZNK5Mafia3actERKSt3mapIi12SmartPointerI6PlayerESt4lessIiESaISt4pairIKiS3_EEEiR6Loggerib.Frame.actor+0xeb0>
    7fb3:	48 8b 85 e8 fe ff ff 	mov    rax,QWORD PTR [rbp-0x118]
    7fba:	48 89 c7             	mov    rdi,rax
    7fbd:	e8 de e7 ff ff       	call   67a0 <_ZdlPv@plt>
    7fc2:	e9 4d 02 00 00       	jmp    8214 <_ZN5Mafia3actEPZNKS_3actERKSt3mapIi12SmartPointerI6PlayerESt4lessIiESaISt4pairIKiS3_EEEiR6LoggeribE94_ZNK5Mafia3actERKSt3mapIi12SmartPointerI6PlayerESt4lessIiESaISt4pairIKiS3_EEEiR6Loggerib.Frame.actor+0xeb0>
    7fc7:	f3 0f 1e fa          	endbr64 
    7fcb:	e9 44 02 00 00       	jmp    8214 <_ZN5Mafia3actEPZNKS_3actERKSt3mapIi12SmartPointerI6PlayerESt4lessIiESaISt4pairIKiS3_EEEiR6LoggeribE94_ZNK5Mafia3actERKSt3mapIi12SmartPointerI6PlayerESt4lessIiESaISt4pairIKiS3_EEEiR6Loggerib.Frame.actor+0xeb0>
    7fd0:	f3 0f 1e fa          	endbr64 
    7fd4:	49 89 c5             	mov    r13,rax
    7fd7:	45 84 e4             	test   r12b,r12b
    7fda:	74 0c                	je     7fe8 <_ZN5Mafia3actEPZNKS_3actERKSt3mapIi12SmartPointerI6PlayerESt4lessIiESaISt4pairIKiS3_EEEiR6LoggeribE94_ZNK5Mafia3actERKSt3mapIi12SmartPointerI6PlayerESt4lessIiESaISt4pairIKiS3_EEEiR6Loggerib.Frame.actor+0xc84>
    7fdc:	48 8d 45 a0          	lea    rax,[rbp-0x60]
    7fe0:	48 89 c7             	mov    rdi,rax
    7fe3:	e8 fe 34 01 00       	call   1b4e6 <_ZNSt7__cxx1112basic_stringIcSt11char_traitsIcESaIcEED1Ev>
    7fe8:	4d 89 ec             	mov    r12,r13
    7feb:	84 db                	test   bl,bl
    7fed:	74 0c                	je     7ffb <_ZN5Mafia3actEPZNKS_3actERKSt3mapIi12SmartPointerI6PlayerESt4lessIiESaISt4pairIKiS3_EEEiR6LoggeribE94_ZNK5Mafia3actERKSt3mapIi12SmartPointerI6PlayerESt4lessIiESaISt4pairIKiS3_EEEiR6Loggerib.Frame.actor+0xc97>
    7fef:	48 8d 45 80          	lea    rax,[rbp-0x80]
    7ff3:	48 89 c7             	mov    rdi,rax
    7ff6:	e8 eb 34 01 00       	call   1b4e6 <_ZNSt7__cxx1112basic_stringIcSt11char_traitsIcESaIcEED1Ev>
    7ffb:	4c 89 e3             	mov    rbx,r12
    7ffe:	e9 91 00 00 00       	jmp    8094 <_ZN5Mafia3actEPZNKS_3actERKSt3mapIi12SmartPointerI6PlayerESt4lessIiESaISt4pairIKiS3_EEEiR6LoggeribE94_ZNK5Mafia3actERKSt3mapIi12SmartPointerI6PlayerESt4lessIiESaISt4pairIKiS3_EEEiR6Loggerib.Frame.actor+0xd30>
    8003:	f3 0f 1e fa          	endbr64 
    8007:	48 89 c3             	mov    rbx,rax
    800a:	48 8d 45 a0          	lea    rax,[rbp-0x60]
    800e:	48 89 c7             	mov    rdi,rax
    8011:	e8 d0 34 01 00       	call   1b4e6 <_ZNSt7__cxx1112basic_stringIcSt11char_traitsIcESaIcEED1Ev>
    8016:	eb 07                	jmp    801f <_ZN5Mafia3actEPZNKS_3actERKSt3mapIi12SmartPointerI6PlayerESt4lessIiESaISt4pairIKiS3_EEEiR6LoggeribE94_ZNK5Mafia3actERKSt3mapIi12SmartPointerI6PlayerESt4lessIiESaISt4pairIKiS3_EEEiR6Loggerib.Frame.actor+0xcbb>
    8018:	f3 0f 1e fa          	endbr64 
    801c:	48 89 c3             	mov    rbx,rax
    801f:	48 8d 45 80          	lea    rax,[rbp-0x80]
    8023:	48 89 c7             	mov    rdi,rax
    8026:	e8 bb 34 01 00       	call   1b4e6 <_ZNSt7__cxx1112basic_stringIcSt11char_traitsIcESaIcEED1Ev>
    802b:	eb 07                	jmp    8034 <_ZN5Mafia3actEPZNKS_3actERKSt3mapIi12SmartPointerI6PlayerESt4lessIiESaISt4pairIKiS3_EEEiR6LoggeribE94_ZNK5Mafia3actERKSt3mapIi12SmartPointerI6PlayerESt4lessIiESaISt4pairIKiS3_EEEiR6Loggerib.Frame.actor+0xcd0>
    802d:	f3 0f 1e fa          	endbr64 
    8031:	48 89 c3             	mov    rbx,rax
    8034:	48 8d 85 40 ff ff ff 	lea    rax,[rbp-0xc0]
    803b:	48 89 c7             	mov    rdi,rax
    803e:	e8 a3 34 01 00       	call   1b4e6 <_ZNSt7__cxx1112basic_stringIcSt11char_traitsIcESaIcEED1Ev>
    8043:	eb 07                	jmp    804c <_ZN5Mafia3actEPZNKS_3actERKSt3mapIi12SmartPointerI6PlayerESt4lessIiESaISt4pairIKiS3_EEEiR6LoggeribE94_ZNK5Mafia3actERKSt3mapIi12SmartPointerI6PlayerESt4lessIiESaISt4pairIKiS3_EEEiR6Loggerib.Frame.actor+0xce8>
    8045:	f3 0f 1e fa          	endbr64 
    8049:	48 89 c3             	mov    rbx,rax
    804c:	48 8d 85 20 ff ff ff 	lea    rax,[rbp-0xe0]
    8053:	48 89 c7             	mov    rdi,rax
    8056:	e8 8b 34 01 00       	call   1b4e6 <_ZNSt7__cxx1112basic_stringIcSt11char_traitsIcESaIcEED1Ev>
    805b:	eb 07                	jmp    8064 <_ZN5Mafia3actEPZNKS_3actERKSt3mapIi12SmartPointerI6PlayerESt4lessIiESaISt4pairIKiS3_EEEiR6LoggeribE94_ZNK5Mafia3actERKSt3mapIi12SmartPointerI6PlayerESt4lessIiESaISt4pairIKiS3_EEEiR6Loggerib.Frame.actor+0xd00>
    805d:	f3 0f 1e fa          	endbr64 
    8061:	48 89 c3             	mov    rbx,rax
    8064:	48 8d 85 00 ff ff ff 	lea    rax,[rbp-0x100]
    806b:	48 89 c7             	mov    rdi,rax
    806e:	e8 73 34 01 00       	call   1b4e6 <_ZNSt7__cxx1112basic_stringIcSt11char_traitsIcESaIcEED1Ev>
    8073:	eb 07                	jmp    807c <_ZN5Mafia3actEPZNKS_3actERKSt3mapIi12SmartPointerI6PlayerESt4lessIiESaISt4pairIKiS3_EEEiR6LoggeribE94_ZNK5Mafia3actERKSt3mapIi12SmartPointerI6PlayerESt4lessIiESaISt4pairIKiS3_EEEiR6Loggerib.Frame.actor+0xd18>
    8075:	f3 0f 1e fa          	endbr64 
    8079:	48 89 c3             	mov    rbx,rax
    807c:	48 8d 85 60 ff ff ff 	lea    rax,[rbp-0xa0]
    8083:	48 89 c7             	mov    rdi,rax
    8086:	e8 5b 34 01 00       	call   1b4e6 <_ZNSt7__cxx1112basic_stringIcSt11char_traitsIcESaIcEED1Ev>
    808b:	eb 07                	jmp    8094 <_ZN5Mafia3actEPZNKS_3actERKSt3mapIi12SmartPointerI6PlayerESt4lessIiESaISt4pairIKiS3_EEEiR6LoggeribE94_ZNK5Mafia3actERKSt3mapIi12SmartPointerI6PlayerESt4lessIiESaISt4pairIKiS3_EEEiR6Loggerib.Frame.actor+0xd30>
    808d:	f3 0f 1e fa          	endbr64 
    8091:	48 89 c3             	mov    rbx,rax
    8094:	48 8b 85 e8 fe ff ff 	mov    rax,QWORD PTR [rbp-0x118]
    809b:	48 83 c0 50          	add    rax,0x50
    809f:	48 89 c7             	mov    rdi,rax
    80a2:	e8 a1 4f 01 00       	call   1d048 <_ZNSt6vectorIiSaIiEED1Ev>
    80a7:	48 89 d8             	mov    rax,rbx
    80aa:	e9 f7 00 00 00       	jmp    81a6 <_ZN5Mafia3actEPZNKS_3actERKSt3mapIi12SmartPointerI6PlayerESt4lessIiESaISt4pairIKiS3_EEEiR6LoggeribE94_ZNK5Mafia3actERKSt3mapIi12SmartPointerI6PlayerESt4lessIiESaISt4pairIKiS3_EEEiR6Loggerib.Frame.actor+0xe42>
    80af:	f3 0f 1e fa          	endbr64 
    80b3:	49 89 c4             	mov    r12,rax
    80b6:	45 84 f6             	test   r14b,r14b
    80b9:	74 0c                	je     80c7 <_ZN5Mafia3actEPZNKS_3actERKSt3mapIi12SmartPointerI6PlayerESt4lessIiESaISt4pairIKiS3_EEEiR6LoggeribE94_ZNK5Mafia3actERKSt3mapIi12SmartPointerI6PlayerESt4lessIiESaISt4pairIKiS3_EEEiR6Loggerib.Frame.actor+0xd63>
    80bb:	48 8d 45 a0          	lea    rax,[rbp-0x60]
    80bf:	48 89 c7             	mov    rdi,rax
    80c2:	e8 1f 34 01 00       	call   1b4e6 <_ZNSt7__cxx1112basic_stringIcSt11char_traitsIcESaIcEED1Ev>
    80c7:	84 db                	test   bl,bl
    80c9:	74 0c                	je     80d7 <_ZN5Mafia3actEPZNKS_3actERKSt3mapIi12SmartPointerI6PlayerESt4lessIiESaISt4pairIKiS3_EEEiR6LoggeribE94_ZNK5Mafia3actERKSt3mapIi12SmartPointerI6PlayerESt4lessIiESaISt4pairIKiS3_EEEiR6Loggerib.Frame.actor+0xd73>
    80cb:	48 8d 45 80          	lea    rax,[rbp-0x80]
    80cf:	48 89 c7             	mov    rdi,rax
    80d2:	e8 0f 34 01 00       	call   1b4e6 <_ZNSt7__cxx1112basic_stringIcSt11char_traitsIcESaIcEED1Ev>
    80d7:	4c 89 e3             	mov    rbx,r12
    80da:	e9 af 00 00 00       	jmp    818e <_ZN5Mafia3actEPZNKS_3actERKSt3mapIi12SmartPointerI6PlayerESt4lessIiESaISt4pairIKiS3_EEEiR6LoggeribE94_ZNK5Mafia3actERKSt3mapIi12SmartPointerI6PlayerESt4lessIiESaISt4pairIKiS3_EEEiR6Loggerib.Frame.actor+0xe2a>
    80df:	f3 0f 1e fa          	endbr64 
    80e3:	48 89 c3             	mov    rbx,rax
    80e6:	48 8d 45 a0          	lea    rax,[rbp-0x60]
    80ea:	48 89 c7             	mov    rdi,rax
    80ed:	e8 f4 33 01 00       	call   1b4e6 <_ZNSt7__cxx1112basic_stringIcSt11char_traitsIcESaIcEED1Ev>
    80f2:	eb 07                	jmp    80fb <_ZN5Mafia3actEPZNKS_3actERKSt3mapIi12SmartPointerI6PlayerESt4lessIiESaISt4pairIKiS3_EEEiR6LoggeribE94_ZNK5Mafia3actERKSt3mapIi12SmartPointerI6PlayerESt4lessIiESaISt4pairIKiS3_EEEiR6Loggerib.Frame.actor+0xd97>
    80f4:	f3 0f 1e fa          	endbr64 
    80f8:	48 89 c3             	mov    rbx,rax
    80fb:	48 8d 45 80          	lea    rax,[rbp-0x80]
    80ff:	48 89 c7             	mov    rdi,rax
    8102:	e8 df 33 01 00       	call   1b4e6 <_ZNSt7__cxx1112basic_stringIcSt11char_traitsIcESaIcEED1Ev>
    8107:	eb 07                	jmp    8110 <_ZN5Mafia3actEPZNKS_3actERKSt3mapIi12SmartPointerI6PlayerESt4lessIiESaISt4pairIKiS3_EEEiR6LoggeribE94_ZNK5Mafia3actERKSt3mapIi12SmartPointerI6PlayerESt4lessIiESaISt4pairIKiS3_EEEiR6Loggerib.Frame.actor+0xdac>
    8109:	f3 0f 1e fa          	endbr64 
    810d:	48 89 c3             	mov    rbx,rax
    8110:	48 8d 85 40 ff ff ff 	lea    rax,[rbp-0xc0]
    8117:	48 89 c7             	mov    rdi,rax
    811a:	e8 c7 33 01 00       	call   1b4e6 <_ZNSt7__cxx1112basic_stringIcSt11char_traitsIcESaIcEED1Ev>
    811f:	eb 07                	jmp    8128 <_ZN5Mafia3actEPZNKS_3actERKSt3mapIi12SmartPointerI6PlayerESt4lessIiESaISt4pairIKiS3_EEEiR6LoggeribE94_ZNK5Mafia3actERKSt3mapIi12SmartPointerI6PlayerESt4lessIiESaISt4pairIKiS3_EEEiR6Loggerib.Frame.actor+0xdc4>
    8121:	f3 0f 1e fa          	endbr64 
    8125:	48 89 c3             	mov    rbx,rax
    8128:	48 8d 85 20 ff ff ff 	lea    rax,[rbp-0xe0]
    812f:	48 89 c7             	mov    rdi,rax
    8132:	e8 af 33 01 00       	call   1b4e6 <_ZNSt7__cxx1112basic_stringIcSt11char_traitsIcESaIcEED1Ev>
    8137:	eb 07                	jmp    8140 <_ZN5Mafia3actEPZNKS_3actERKSt3mapIi12SmartPointerI6PlayerESt4lessIiESaISt4pairIKiS3_EEEiR6LoggeribE94_ZNK5Mafia3actERKSt3mapIi12SmartPointerI6PlayerESt4lessIiESaISt4pairIKiS3_EEEiR6Loggerib.Frame.actor+0xddc>
    8139:	f3 0f 1e fa          	endbr64 
    813d:	48 89 c3             	mov    rbx,rax
    8140:	48 8d 85 00 ff ff ff 	lea    rax,[rbp-0x100]
    8147:	48 89 c7             	mov    rdi,rax
    814a:	e8 97 33 01 00       	call   1b4e6 <_ZNSt7__cxx1112basic_stringIcSt11char_traitsIcESaIcEED1Ev>
    814f:	eb 07                	jmp    8158 <_ZN5Mafia3actEPZNKS_3actERKSt3mapIi12SmartPointerI6PlayerESt4lessIiESaISt4pairIKiS3_EEEiR6LoggeribE94_ZNK5Mafia3actERKSt3mapIi12SmartPointerI6PlayerESt4lessIiESaISt4pairIKiS3_EEEiR6Loggerib.Frame.actor+0xdf4>
    8151:	f3 0f 1e fa          	endbr64 
    8155:	48 89 c3             	mov    rbx,rax
    8158:	48 8d 85 60 ff ff ff 	lea    rax,[rbp-0xa0]
    815f:	48 89 c7             	mov    rdi,rax
    8162:	e8 7f 33 01 00       	call   1b4e6 <_ZNSt7__cxx1112basic_stringIcSt11char_traitsIcESaIcEED1Ev>
    8167:	eb 07                	jmp    8170 <_ZN5Mafia3actEPZNKS_3actERKSt3mapIi12SmartPointerI6PlayerESt4lessIiESaISt4pairIKiS3_EEEiR6LoggeribE94_ZNK5Mafia3actERKSt3mapIi12SmartPointerI6PlayerESt4lessIiESaISt4pairIKiS3_EEEiR6Loggerib.Frame.actor+0xe0c>
    8169:	f3 0f 1e fa          	endbr64 
    816d:	48 89 c3             	mov    rbx,rax
    8170:	48 8b 85 e8 fe ff ff 	mov    rax,QWORD PTR [rbp-0x118]
    8177:	48 05 10 01 00 00    	add    rax,0x110
    817d:	48 89 c7             	mov    rdi,rax
    8180:	e8 c3 4e 01 00       	call   1d048 <_ZNSt6vectorIiSaIiEED1Ev>
    8185:	eb 07                	jmp    818e <_ZN5Mafia3actEPZNKS_3actERKSt3mapIi12SmartPointerI6PlayerESt4lessIiESaISt4pairIKiS3_EEEiR6LoggeribE94_ZNK5Mafia3actERKSt3mapIi12SmartPointerI6PlayerESt4lessIiESaISt4pairIKiS3_EEEiR6Loggerib.Frame.actor+0xe2a>
    8187:	f3 0f 1e fa          	endbr64 
    818b:	48 89 c3             	mov    rbx,rax
    818e:	48 8b 85 e8 fe ff ff 	mov    rax,QWORD PTR [rbp-0x118]
    8195:	48 05 a0 00 00 00    	add    rax,0xa0
    819b:	48 89 c7             	mov    rdi,rax
    819e:	e8 33 21 01 00       	call   1a2d6 <_ZNSt3mapIiiSt4lessIiESaISt4pairIKiiEEED1Ev>
    81a3:	48 89 d8             	mov    rax,rbx
    81a6:	48 89 c7             	mov    rdi,rax
    81a9:	e8 22 e4 ff ff       	call   65d0 <__cxa_begin_catch@plt>
    81ae:	48 8b 85 e8 fe ff ff 	mov    rax,QWORD PTR [rbp-0x118]
    81b5:	0f b6 40 49          	movzx  eax,BYTE PTR [rax+0x49]
    81b9:	83 f0 01             	xor    eax,0x1
    81bc:	84 c0                	test   al,al
    81be:	74 05                	je     81c5 <_ZN5Mafia3actEPZNKS_3actERKSt3mapIi12SmartPointerI6PlayerESt4lessIiESaISt4pairIKiS3_EEEiR6LoggeribE94_ZNK5Mafia3actERKSt3mapIi12SmartPointerI6PlayerESt4lessIiESaISt4pairIKiS3_EEEiR6Loggerib.Frame.actor+0xe61>
    81c0:	e8 2b e7 ff ff       	call   68f0 <__cxa_rethrow@plt>
    81c5:	48 8b 85 e8 fe ff ff 	mov    rax,QWORD PTR [rbp-0x118]
    81cc:	48 c7 00 00 00 00 00 	mov    QWORD PTR [rax],0x0
    81d3:	48 8b 85 e8 fe ff ff 	mov    rax,QWORD PTR [rbp-0x118]
    81da:	66 c7 40 46 00 00    	mov    WORD PTR [rax+0x46],0x0
    81e0:	48 8b 85 e8 fe ff ff 	mov    rax,QWORD PTR [rbp-0x118]
    81e7:	48 83 c0 10          	add    rax,0x10
    81eb:	48 89 c7             	mov    rdi,rax
    81ee:	e8 03 1c 01 00       	call   19df6 <_ZN12PlayerAction12promise_type19unhandled_exceptionEv>
    81f3:	e8 58 e7 ff ff       	call   6950 <__cxa_end_catch@plt>
    81f8:	e9 0e fd ff ff       	jmp    7f0b <_ZN5Mafia3actEPZNKS_3actERKSt3mapIi12SmartPointerI6PlayerESt4lessIiESaISt4pairIKiS3_EEEiR6LoggeribE94_ZNK5Mafia3actERKSt3mapIi12SmartPointerI6PlayerESt4lessIiESaISt4pairIKiS3_EEEiR6Loggerib.Frame.actor+0xba7>
    81fd:	f3 0f 1e fa          	endbr64 
    8201:	48 89 c3             	mov    rbx,rax
    8204:	e8 47 e7 ff ff       	call   6950 <__cxa_end_catch@plt>
    8209:	48 89 d8             	mov    rax,rbx
    820c:	48 89 c7             	mov    rdi,rax
    820f:	e8 8c e7 ff ff       	call   69a0 <_Unwind_Resume@plt>
    8214:	90                   	nop
    8215:	48 8b 45 c8          	mov    rax,QWORD PTR [rbp-0x38]
    8219:	64 48 2b 04 25 28 00 	sub    rax,QWORD PTR fs:0x28
    8220:	00 00 
    8222:	74 05                	je     8229 <_ZN5Mafia3actEPZNKS_3actERKSt3mapIi12SmartPointerI6PlayerESt4lessIiESaISt4pairIKiS3_EEEiR6LoggeribE94_ZNK5Mafia3actERKSt3mapIi12SmartPointerI6PlayerESt4lessIiESaISt4pairIKiS3_EEEiR6Loggerib.Frame.actor+0xec5>
    8224:	e8 17 e6 ff ff       	call   6840 <__stack_chk_fail@plt>
    8229:	48 81 c4 f8 00 00 00 	add    rsp,0xf8
    8230:	5b                   	pop    rbx
    8231:	41 5c                	pop    r12
    8233:	41 5d                	pop    r13
    8235:	41 5e                	pop    r14
    8237:	41 5f                	pop    r15
    8239:	5d                   	pop    rbp
    823a:	c3                   	ret    
    823b:	90                   	nop

000000000000823c <_ZN5Mafia3actEPZNKS_3actERKSt3mapIi12SmartPointerI6PlayerESt4lessIiESaISt4pairIKiS3_EEEiR6LoggeribE94_ZNK5Mafia3actERKSt3mapIi12SmartPointerI6PlayerESt4lessIiESaISt4pairIKiS3_EEEiR6Loggerib.Frame.destroy>:
    823c:	f3 0f 1e fa          	endbr64 
    8240:	55                   	push   rbp
    8241:	48 89 e5             	mov    rbp,rsp
    8244:	48 83 ec 10          	sub    rsp,0x10
    8248:	48 89 7d f8          	mov    QWORD PTR [rbp-0x8],rdi
    824c:	48 8b 45 f8          	mov    rax,QWORD PTR [rbp-0x8]
    8250:	0f b7 40 46          	movzx  eax,WORD PTR [rax+0x46]
    8254:	83 c8 01             	or     eax,0x1
    8257:	89 c2                	mov    edx,eax
    8259:	48 8b 45 f8          	mov    rax,QWORD PTR [rbp-0x8]
    825d:	66 89 50 46          	mov    WORD PTR [rax+0x46],dx
    8261:	48 8b 45 f8          	mov    rax,QWORD PTR [rbp-0x8]
    8265:	48 89 c7             	mov    rdi,rax
    8268:	e8 f7 f0 ff ff       	call   7364 <_ZN5Mafia3actEPZNKS_3actERKSt3mapIi12SmartPointerI6PlayerESt4lessIiESaISt4pairIKiS3_EEEiR6LoggeribE94_ZNK5Mafia3actERKSt3mapIi12SmartPointerI6PlayerESt4lessIiESaISt4pairIKiS3_EEEiR6Loggerib.Frame.actor>
    826d:	c9                   	leave  
    826e:	c3                   	ret    
    826f:	90                   	nop

0000000000008270 <_ZN5Mafia4voteEPZNKS_4voteERKSt3mapIi12SmartPointerI6PlayerESt4lessIiESaISt4pairIKiS3_EEEiR6LoggeriE94_ZNK5Mafia4voteERKSt3mapIi12SmartPointerI6PlayerESt4lessIiESaISt4pairIKiS3_EEEiR6Loggeri.Frame.actor>:
    8270:	f3 0f 1e fa          	endbr64 
    8274:	55                   	push   rbp
    8275:	48 89 e5             	mov    rbp,rsp
    8278:	53                   	push   rbx
    8279:	48 81 ec f8 00 00 00 	sub    rsp,0xf8
    8280:	48 89 bd 08 ff ff ff 	mov    QWORD PTR [rbp-0xf8],rdi
    8287:	64 48 8b 04 25 28 00 	mov    rax,QWORD PTR fs:0x28
    828e:	00 00 
    8290:	48 89 45 e8          	mov    QWORD PTR [rbp-0x18],rax
    8294:	31 c0                	xor    eax,eax
    8296:	48 8b 85 08 ff ff ff 	mov    rax,QWORD PTR [rbp-0xf8]
    829d:	0f b7 40 44          	movzx  eax,WORD PTR [rax+0x44]
    82a1:	83 e0 01             	and    eax,0x1
    82a4:	66 85 c0             	test   ax,ax
    82a7:	74 30                	je     82d9 <_ZN5Mafia4voteEPZNKS_4voteERKSt3mapIi12SmartPointerI6PlayerESt4lessIiESaISt4pairIKiS3_EEEiR6LoggeriE94_ZNK5Mafia4voteERKSt3mapIi12SmartPointerI6PlayerESt4lessIiESaISt4pairIKiS3_EEEiR6Loggeri.Frame.actor+0x69>
    82a9:	48 8b 85 08 ff ff ff 	mov    rax,QWORD PTR [rbp-0xf8]
    82b0:	0f b7 40 44          	movzx  eax,WORD PTR [rax+0x44]
    82b4:	0f b7 c0             	movzx  eax,ax
    82b7:	83 f8 05             	cmp    eax,0x5
    82ba:	0f 84 34 04 00 00    	je     86f4 <_ZN5Mafia4voteEPZNKS_4voteERKSt3mapIi12SmartPointerI6PlayerESt4lessIiESaISt4pairIKiS3_EEEiR6LoggeriE94_ZNK5Mafia4voteERKSt3mapIi12SmartPointerI6PlayerESt4lessIiESaISt4pairIKiS3_EEEiR6Loggeri.Frame.actor+0x484>
    82c0:	83 f8 05             	cmp    eax,0x5
    82c3:	7f 12                	jg     82d7 <_ZN5Mafia4voteEPZNKS_4voteERKSt3mapIi12SmartPointerI6PlayerESt4lessIiESaISt4pairIKiS3_EEEiR6LoggeriE94_ZNK5Mafia4voteERKSt3mapIi12SmartPointerI6PlayerESt4lessIiESaISt4pairIKiS3_EEEiR6Loggeri.Frame.actor+0x67>
    82c5:	83 f8 01             	cmp    eax,0x1
    82c8:	0f 84 3f 04 00 00    	je     870d <_ZN5Mafia4voteEPZNKS_4voteERKSt3mapIi12SmartPointerI6PlayerESt4lessIiESaISt4pairIKiS3_EEEiR6LoggeriE94_ZNK5Mafia4voteERKSt3mapIi12SmartPointerI6PlayerESt4lessIiESaISt4pairIKiS3_EEEiR6Loggeri.Frame.actor+0x49d>
    82ce:	83 f8 03             	cmp    eax,0x3
    82d1:	0f 84 be 00 00 00    	je     8395 <_ZN5Mafia4voteEPZNKS_4voteERKSt3mapIi12SmartPointerI6PlayerESt4lessIiESaISt4pairIKiS3_EEEiR6LoggeriE94_ZNK5Mafia4voteERKSt3mapIi12SmartPointerI6PlayerESt4lessIiESaISt4pairIKiS3_EEEiR6Loggeri.Frame.actor+0x125>
    82d7:	0f 0b                	ud2    
    82d9:	48 8b 85 08 ff ff ff 	mov    rax,QWORD PTR [rbp-0xf8]
    82e0:	0f b7 40 44          	movzx  eax,WORD PTR [rax+0x44]
    82e4:	0f b7 c0             	movzx  eax,ax
    82e7:	83 f8 04             	cmp    eax,0x4
    82ea:	0f 84 06 04 00 00    	je     86f6 <_ZN5Mafia4voteEPZNKS_4voteERKSt3mapIi12SmartPointerI6PlayerESt4lessIiESaISt4pairIKiS3_EEEiR6LoggeriE94_ZNK5Mafia4voteERKSt3mapIi12SmartPointerI6PlayerESt4lessIiESaISt4pairIKiS3_EEEiR6Loggeri.Frame.actor+0x486>
    82f0:	83 f8 04             	cmp    eax,0x4
    82f3:	7f 63                	jg     8358 <_ZN5Mafia4voteEPZNKS_4voteERKSt3mapIi12SmartPointerI6PlayerESt4lessIiESaISt4pairIKiS3_EEEiR6LoggeriE94_ZNK5Mafia4voteERKSt3mapIi12SmartPointerI6PlayerESt4lessIiESaISt4pairIKiS3_EEEiR6Loggeri.Frame.actor+0xe8>
    82f5:	85 c0                	test   eax,eax
    82f7:	74 0b                	je     8304 <_ZN5Mafia4voteEPZNKS_4voteERKSt3mapIi12SmartPointerI6PlayerESt4lessIiESaISt4pairIKiS3_EEEiR6LoggeriE94_ZNK5Mafia4voteERKSt3mapIi12SmartPointerI6PlayerESt4lessIiESaISt4pairIKiS3_EEEiR6Loggeri.Frame.actor+0x94>
    82f9:	83 f8 02             	cmp    eax,0x2
    82fc:	0f 84 98 00 00 00    	je     839a <_ZN5Mafia4voteEPZNKS_4voteERKSt3mapIi12SmartPointerI6PlayerESt4lessIiESaISt4pairIKiS3_EEEiR6LoggeriE94_ZNK5Mafia4voteERKSt3mapIi12SmartPointerI6PlayerESt4lessIiESaISt4pairIKiS3_EEEiR6Loggeri.Frame.actor+0x12a>
    8302:	eb 54                	jmp    8358 <_ZN5Mafia4voteEPZNKS_4voteERKSt3mapIi12SmartPointerI6PlayerESt4lessIiESaISt4pairIKiS3_EEEiR6LoggeriE94_ZNK5Mafia4voteERKSt3mapIi12SmartPointerI6PlayerESt4lessIiESaISt4pairIKiS3_EEEiR6Loggeri.Frame.actor+0xe8>
    8304:	48 8b 9d 08 ff ff ff 	mov    rbx,QWORD PTR [rbp-0xf8]
    830b:	48 8b 85 08 ff ff ff 	mov    rax,QWORD PTR [rbp-0xf8]
    8312:	48 89 c7             	mov    rdi,rax
    8315:	e8 56 4c 01 00       	call   1cf70 <_ZNSt7__n486116coroutine_handleIN12PlayerAction12promise_typeEE12from_addressEPv>
    831a:	48 89 43 18          	mov    QWORD PTR [rbx+0x18],rax
    831e:	48 8b 85 08 ff ff ff 	mov    rax,QWORD PTR [rbp-0xf8]
    8325:	c6 40 47 00          	mov    BYTE PTR [rax+0x47],0x0
    8329:	48 8b 85 08 ff ff ff 	mov    rax,QWORD PTR [rbp-0xf8]
    8330:	48 83 c0 10          	add    rax,0x10
    8334:	48 89 c7             	mov    rdi,rax
    8337:	e8 8a 1a 01 00       	call   19dc6 <_ZN12PlayerAction12promise_type15initial_suspendEv>
    833c:	48 8b 85 08 ff ff ff 	mov    rax,QWORD PTR [rbp-0xf8]
    8343:	48 83 c0 48          	add    rax,0x48
    8347:	48 89 c7             	mov    rdi,rax
    834a:	e8 eb 11 01 00       	call   1953a <_ZNKSt7__n486114suspend_always11await_readyEv>
    834f:	83 f0 01             	xor    eax,0x1
    8352:	84 c0                	test   al,al
    8354:	75 04                	jne    835a <_ZN5Mafia4voteEPZNKS_4voteERKSt3mapIi12SmartPointerI6PlayerESt4lessIiESaISt4pairIKiS3_EEEiR6LoggeriE94_ZNK5Mafia4voteERKSt3mapIi12SmartPointerI6PlayerESt4lessIiESaISt4pairIKiS3_EEEiR6Loggeri.Frame.actor+0xea>
    8356:	eb 42                	jmp    839a <_ZN5Mafia4voteEPZNKS_4voteERKSt3mapIi12SmartPointerI6PlayerESt4lessIiESaISt4pairIKiS3_EEEiR6LoggeriE94_ZNK5Mafia4voteERKSt3mapIi12SmartPointerI6PlayerESt4lessIiESaISt4pairIKiS3_EEEiR6Loggeri.Frame.actor+0x12a>
    8358:	0f 0b                	ud2    
    835a:	48 8b 85 08 ff ff ff 	mov    rax,QWORD PTR [rbp-0xf8]
    8361:	66 c7 40 44 02 00    	mov    WORD PTR [rax+0x44],0x2
    8367:	48 8b 85 08 ff ff ff 	mov    rax,QWORD PTR [rbp-0xf8]
    836e:	48 8d 58 48          	lea    rbx,[rax+0x48]
    8372:	48 8b 85 08 ff ff ff 	mov    rax,QWORD PTR [rbp-0xf8]
    8379:	48 83 c0 18          	add    rax,0x18
    837d:	48 89 c7             	mov    rdi,rax
    8380:	e8 c5 4b 01 00       	call   1cf4a <_ZNKSt7__n486116coroutine_handleIN12PlayerAction12promise_typeEEcvNS0_IvEEEv>
    8385:	48 89 c6             	mov    rsi,rax
    8388:	48 89 df             	mov    rdi,rbx
    838b:	e8 be 11 01 00       	call   1954e <_ZNKSt7__n486114suspend_always13await_suspendENS_16coroutine_handleIvEE>
    8390:	e9 a3 03 00 00       	jmp    8738 <_ZN5Mafia4voteEPZNKS_4voteERKSt3mapIi12SmartPointerI6PlayerESt4lessIiESaISt4pairIKiS3_EEEiR6LoggeriE94_ZNK5Mafia4voteERKSt3mapIi12SmartPointerI6PlayerESt4lessIiESaISt4pairIKiS3_EEEiR6Loggeri.Frame.actor+0x4c8>
    8395:	e9 74 03 00 00       	jmp    870e <_ZN5Mafia4voteEPZNKS_4voteERKSt3mapIi12SmartPointerI6PlayerESt4lessIiESaISt4pairIKiS3_EEEiR6LoggeriE94_ZNK5Mafia4voteERKSt3mapIi12SmartPointerI6PlayerESt4lessIiESaISt4pairIKiS3_EEEiR6Loggeri.Frame.actor+0x49e>
    839a:	48 8b 85 08 ff ff ff 	mov    rax,QWORD PTR [rbp-0xf8]
    83a1:	c6 40 47 01          	mov    BYTE PTR [rax+0x47],0x1
    83a5:	48 8b 85 08 ff ff ff 	mov    rax,QWORD PTR [rbp-0xf8]
    83ac:	48 83 c0 48          	add    rax,0x48
    83b0:	48 89 c7             	mov    rdi,rax
    83b3:	e8 aa 11 01 00       	call   19562 <_ZNKSt7__n486114suspend_always12await_resumeEv>
    83b8:	48 8b 85 08 ff ff ff 	mov    rax,QWORD PTR [rbp-0xf8]
    83bf:	c7 40 4c ff ff ff ff 	mov    DWORD PTR [rax+0x4c],0xffffffff
    83c6:	48 8b 85 08 ff ff ff 	mov    rax,QWORD PTR [rbp-0xf8]
    83cd:	48 83 c0 50          	add    rax,0x50
    83d1:	48 89 c7             	mov    rdi,rax
    83d4:	e8 33 1c 01 00       	call   1a00c <_ZNSt6vectorIiSaIiEEC1Ev>
    83d9:	48 8b 85 08 ff ff ff 	mov    rax,QWORD PTR [rbp-0xf8]
    83e0:	48 8b 50 28          	mov    rdx,QWORD PTR [rax+0x28]
    83e4:	48 8b 85 08 ff ff ff 	mov    rax,QWORD PTR [rbp-0xf8]
    83eb:	48 89 90 80 00 00 00 	mov    QWORD PTR [rax+0x80],rdx
    83f2:	48 8b 85 08 ff ff ff 	mov    rax,QWORD PTR [rbp-0xf8]
    83f9:	48 8b 80 80 00 00 00 	mov    rax,QWORD PTR [rax+0x80]
    8400:	48 8b 9d 08 ff ff ff 	mov    rbx,QWORD PTR [rbp-0xf8]
    8407:	48 89 c7             	mov    rdi,rax
    840a:	e8 81 4c 01 00       	call   1d090 <_ZNKSt3mapIi12SmartPointerI6PlayerESt4lessIiESaISt4pairIKiS2_EEE5beginEv>
    840f:	48 89 83 88 00 00 00 	mov    QWORD PTR [rbx+0x88],rax
    8416:	48 8b 85 08 ff ff ff 	mov    rax,QWORD PTR [rbp-0xf8]
    841d:	48 8b 80 80 00 00 00 	mov    rax,QWORD PTR [rax+0x80]
    8424:	48 8b 9d 08 ff ff ff 	mov    rbx,QWORD PTR [rbp-0xf8]
    842b:	48 89 c7             	mov    rdi,rax
    842e:	e8 7b 4c 01 00       	call   1d0ae <_ZNKSt3mapIi12SmartPointerI6PlayerESt4lessIiESaISt4pairIKiS2_EEE3endEv>
    8433:	48 89 83 90 00 00 00 	mov    QWORD PTR [rbx+0x90],rax
    843a:	e9 92 00 00 00       	jmp    84d1 <_ZN5Mafia4voteEPZNKS_4voteERKSt3mapIi12SmartPointerI6PlayerESt4lessIiESaISt4pairIKiS3_EEEiR6LoggeriE94_ZNK5Mafia4voteERKSt3mapIi12SmartPointerI6PlayerESt4lessIiESaISt4pairIKiS3_EEEiR6Loggeri.Frame.actor+0x261>
    843f:	48 8b 85 08 ff ff ff 	mov    rax,QWORD PTR [rbp-0xf8]
    8446:	48 05 88 00 00 00    	add    rax,0x88
    844c:	48 89 c7             	mov    rdi,rax
    844f:	e8 ca 4c 01 00       	call   1d11e <_ZNKSt23_Rb_tree_const_iteratorISt4pairIKi12SmartPointerI6PlayerEEEdeEv>
    8454:	48 8b 95 08 ff ff ff 	mov    rdx,QWORD PTR [rbp-0xf8]
    845b:	48 89 42 68          	mov    QWORD PTR [rdx+0x68],rax
    845f:	48 8b 85 08 ff ff ff 	mov    rax,QWORD PTR [rbp-0xf8]
    8466:	48 8b 40 68          	mov    rax,QWORD PTR [rax+0x68]
    846a:	48 89 c7             	mov    rdi,rax
    846d:	e8 b9 1b 01 00       	call   1a02b <_ZSt3getILm0EKi12SmartPointerI6PlayerEERKNSt13tuple_elementIXT_ESt4pairIT0_T1_EE4typeERKS8_>
    8472:	48 8b 95 08 ff ff ff 	mov    rdx,QWORD PTR [rbp-0xf8]
    8479:	48 89 42 70          	mov    QWORD PTR [rdx+0x70],rax
    847d:	48 8b 85 08 ff ff ff 	mov    rax,QWORD PTR [rbp-0xf8]
    8484:	48 8b 40 68          	mov    rax,QWORD PTR [rax+0x68]
    8488:	48 89 c7             	mov    rdi,rax
    848b:	e8 b9 1b 01 00       	call   1a049 <_ZSt3getILm1EKi12SmartPointerI6PlayerEERKNSt13tuple_elementIXT_ESt4pairIT0_T1_EE4typeERKS8_>
    8490:	48 8b 95 08 ff ff ff 	mov    rdx,QWORD PTR [rbp-0xf8]
    8497:	48 89 42 78          	mov    QWORD PTR [rdx+0x78],rax
    849b:	48 8b 85 08 ff ff ff 	mov    rax,QWORD PTR [rbp-0xf8]
    84a2:	48 8d 50 50          	lea    rdx,[rax+0x50]
    84a6:	48 8b 85 08 ff ff ff 	mov    rax,QWORD PTR [rbp-0xf8]
    84ad:	48 8b 40 70          	mov    rax,QWORD PTR [rax+0x70]
    84b1:	48 89 c6             	mov    rsi,rax
    84b4:	48 89 d7             	mov    rdi,rdx
    84b7:	e8 ac 4c 01 00       	call   1d168 <_ZNSt6vectorIiSaIiEE9push_backERKi>
    84bc:	48 8b 85 08 ff ff ff 	mov    rax,QWORD PTR [rbp-0xf8]
    84c3:	48 05 88 00 00 00    	add    rax,0x88
    84c9:	48 89 c7             	mov    rdi,rax
    84cc:	e8 21 4c 01 00       	call   1d0f2 <_ZNSt23_Rb_tree_const_iteratorISt4pairIKi12SmartPointerI6PlayerEEEppEv>
    84d1:	48 8b 85 08 ff ff ff 	mov    rax,QWORD PTR [rbp-0xf8]
    84d8:	48 8d 90 90 00 00 00 	lea    rdx,[rax+0x90]
    84df:	48 8b 85 08 ff ff ff 	mov    rax,QWORD PTR [rbp-0xf8]
    84e6:	48 05 88 00 00 00    	add    rax,0x88
    84ec:	48 89 d6             	mov    rsi,rdx
    84ef:	48 89 c7             	mov    rdi,rax
    84f2:	e8 d5 4b 01 00       	call   1d0cc <_ZSteqRKSt23_Rb_tree_const_iteratorISt4pairIKi12SmartPointerI6PlayerEEES8_>
    84f7:	83 f0 01             	xor    eax,0x1
    84fa:	84 c0                	test   al,al
    84fc:	0f 85 3d ff ff ff    	jne    843f <_ZN5Mafia4voteEPZNKS_4voteERKSt3mapIi12SmartPointerI6PlayerESt4lessIiESaISt4pairIKiS3_EEEiR6LoggeriE94_ZNK5Mafia4voteERKSt3mapIi12SmartPointerI6PlayerESt4lessIiESaISt4pairIKiS3_EEEiR6Loggeri.Frame.actor+0x1cf>
    8502:	48 8b 85 08 ff ff ff 	mov    rax,QWORD PTR [rbp-0xf8]
    8509:	48 83 c0 50          	add    rax,0x50
    850d:	48 89 c7             	mov    rdi,rax
    8510:	e8 d2 4c 01 00       	call   1d1e7 <_Z13choose_randomIiET_RKSt6vectorIS0_SaIS0_EE>
    8515:	48 8b 95 08 ff ff ff 	mov    rdx,QWORD PTR [rbp-0xf8]
    851c:	89 42 4c             	mov    DWORD PTR [rdx+0x4c],eax
    851f:	48 8b 85 08 ff ff ff 	mov    rax,QWORD PTR [rbp-0xf8]
    8526:	48 8b 40 20          	mov    rax,QWORD PTR [rax+0x20]
    852a:	48 8b 95 08 ff ff ff 	mov    rdx,QWORD PTR [rbp-0xf8]
    8531:	8b 52 4c             	mov    edx,DWORD PTR [rdx+0x4c]
    8534:	89 50 10             	mov    DWORD PTR [rax+0x10],edx
    8537:	48 8b 85 08 ff ff ff 	mov    rax,QWORD PTR [rbp-0xf8]
    853e:	48 8b 58 38          	mov    rbx,QWORD PTR [rax+0x38]
    8542:	48 8b 85 08 ff ff ff 	mov    rax,QWORD PTR [rbp-0xf8]
    8549:	48 8b 40 20          	mov    rax,QWORD PTR [rax+0x20]
    854d:	8b 50 10             	mov    edx,DWORD PTR [rax+0x10]
    8550:	48 8d 45 80          	lea    rax,[rbp-0x80]
    8554:	89 d6                	mov    esi,edx
    8556:	48 89 c7             	mov    rdi,rax
    8559:	e8 63 fe 00 00       	call   183c1 <_ZNSt7__cxx119to_stringEi>
    855e:	48 8b 85 08 ff ff ff 	mov    rax,QWORD PTR [rbp-0xf8]
    8565:	8b 50 30             	mov    edx,DWORD PTR [rax+0x30]
    8568:	48 8d 85 20 ff ff ff 	lea    rax,[rbp-0xe0]
    856f:	89 d6                	mov    esi,edx
    8571:	48 89 c7             	mov    rdi,rax
    8574:	e8 48 fe 00 00       	call   183c1 <_ZNSt7__cxx119to_stringEi>
    8579:	48 8d 85 40 ff ff ff 	lea    rax,[rbp-0xc0]
    8580:	48 8d 95 20 ff ff ff 	lea    rdx,[rbp-0xe0]
    8587:	48 8d 0d 71 1b 02 00 	lea    rcx,[rip+0x21b71]        # 2a0ff <_ZN9__gnu_cxxL21__default_lock_policyE+0xbf>
    858e:	48 89 ce             	mov    rsi,rcx
    8591:	48 89 c7             	mov    rdi,rax
    8594:	e8 3a 33 01 00       	call   1b8d3 <_ZStplIcSt11char_traitsIcESaIcEENSt7__cxx1112basic_stringIT_T0_T1_EEPKS5_OS8_>
    8599:	48 8d 85 60 ff ff ff 	lea    rax,[rbp-0xa0]
    85a0:	48 8d 8d 40 ff ff ff 	lea    rcx,[rbp-0xc0]
    85a7:	48 8d 15 5d 1b 02 00 	lea    rdx,[rip+0x21b5d]        # 2a10b <_ZN9__gnu_cxxL21__default_lock_policyE+0xcb>
    85ae:	48 89 ce             	mov    rsi,rcx
    85b1:	48 89 c7             	mov    rdi,rax
    85b4:	e8 3c 47 01 00       	call   1ccf5 <_ZStplIcSt11char_traitsIcESaIcEENSt7__cxx1112basic_stringIT_T0_T1_EEOS8_PKS5_>
    85b9:	48 8d 45 a0          	lea    rax,[rbp-0x60]
    85bd:	48 8d 55 80          	lea    rdx,[rbp-0x80]
    85c1:	48 8d 8d 60 ff ff ff 	lea    rcx,[rbp-0xa0]
    85c8:	48 89 ce             	mov    rsi,rcx
    85cb:	48 89 c7             	mov    rdi,rax
    85ce:	e8 17 32 01 00       	call   1b7ea <_ZStplIcSt11char_traitsIcESaIcEENSt7__cxx1112basic_stringIT_T0_T1_EEOS8_S9_>
    85d3:	48 8d 45 c0          	lea    rax,[rbp-0x40]
    85d7:	48 8d 4d a0          	lea    rcx,[rbp-0x60]
    85db:	48 8d 15 c8 1a 02 00 	lea    rdx,[rip+0x21ac8]        # 2a0aa <_ZN9__gnu_cxxL21__default_lock_policyE+0x6a>
    85e2:	48 89 ce             	mov    rsi,rcx
    85e5:	48 89 c7             	mov    rdi,rax
    85e8:	e8 08 47 01 00       	call   1ccf5 <_ZStplIcSt11char_traitsIcESaIcEENSt7__cxx1112basic_stringIT_T0_T1_EEOS8_PKS5_>
    85ed:	48 8b 85 08 ff ff ff 	mov    rax,QWORD PTR [rbp-0xf8]
    85f4:	8b 40 40             	mov    eax,DWORD PTR [rax+0x40]
    85f7:	48 8d 55 c0          	lea    rdx,[rbp-0x40]
    85fb:	89 c6                	mov    esi,eax
    85fd:	48 89 df             	mov    rdi,rbx
    8600:	e8 e7 13 01 00       	call   199ec <_ZN6Logger8logRoundEiRKNSt7__cxx1112basic_stringIcSt11char_traitsIcESaIcEEE>
    8605:	48 8d 45 c0          	lea    rax,[rbp-0x40]
    8609:	48 89 c7             	mov    rdi,rax
    860c:	e8 d5 2e 01 00       	call   1b4e6 <_ZNSt7__cxx1112basic_stringIcSt11char_traitsIcESaIcEED1Ev>
    8611:	48 8d 45 a0          	lea    rax,[rbp-0x60]
    8615:	48 89 c7             	mov    rdi,rax
    8618:	e8 c9 2e 01 00       	call   1b4e6 <_ZNSt7__cxx1112basic_stringIcSt11char_traitsIcESaIcEED1Ev>
    861d:	48 8d 85 60 ff ff ff 	lea    rax,[rbp-0xa0]
    8624:	48 89 c7             	mov    rdi,rax
    8627:	e8 ba 2e 01 00       	call   1b4e6 <_ZNSt7__cxx1112basic_stringIcSt11char_traitsIcESaIcEED1Ev>
    862c:	48 8d 85 40 ff ff ff 	lea    rax,[rbp-0xc0]
    8633:	48 89 c7             	mov    rdi,rax
    8636:	e8 ab 2e 01 00       	call   1b4e6 <_ZNSt7__cxx1112basic_stringIcSt11char_traitsIcESaIcEED1Ev>
    863b:	48 8d 85 20 ff ff ff 	lea    rax,[rbp-0xe0]
    8642:	48 89 c7             	mov    rdi,rax
    8645:	e8 9c 2e 01 00       	call   1b4e6 <_ZNSt7__cxx1112basic_stringIcSt11char_traitsIcESaIcEED1Ev>
    864a:	48 8d 45 80          	lea    rax,[rbp-0x80]
    864e:	48 89 c7             	mov    rdi,rax
    8651:	e8 90 2e 01 00       	call   1b4e6 <_ZNSt7__cxx1112basic_stringIcSt11char_traitsIcESaIcEED1Ev>
    8656:	48 8b 85 08 ff ff ff 	mov    rax,QWORD PTR [rbp-0xf8]
    865d:	48 83 c0 10          	add    rax,0x10
    8661:	48 89 c7             	mov    rdi,rax
    8664:	e8 7d 17 01 00       	call   19de6 <_ZN12PlayerAction12promise_type11return_voidEv>
    8669:	48 8b 85 08 ff ff ff 	mov    rax,QWORD PTR [rbp-0xf8]
    8670:	48 83 c0 50          	add    rax,0x50
    8674:	48 89 c7             	mov    rdi,rax
    8677:	e8 cc 49 01 00       	call   1d048 <_ZNSt6vectorIiSaIiEED1Ev>
    867c:	48 8b 85 08 ff ff ff 	mov    rax,QWORD PTR [rbp-0xf8]
    8683:	48 c7 00 00 00 00 00 	mov    QWORD PTR [rax],0x0
    868a:	48 8b 85 08 ff ff ff 	mov    rax,QWORD PTR [rbp-0xf8]
    8691:	48 83 c0 10          	add    rax,0x10
    8695:	48 89 c7             	mov    rdi,rax
    8698:	e8 39 17 01 00       	call   19dd6 <_ZN12PlayerAction12promise_type13final_suspendEv>
    869d:	48 8b 85 08 ff ff ff 	mov    rax,QWORD PTR [rbp-0xf8]
    86a4:	48 05 98 00 00 00    	add    rax,0x98
    86aa:	48 89 c7             	mov    rdi,rax
    86ad:	e8 88 0e 01 00       	call   1953a <_ZNKSt7__n486114suspend_always11await_readyEv>
    86b2:	83 f0 01             	xor    eax,0x1
    86b5:	84 c0                	test   al,al
    86b7:	74 3d                	je     86f6 <_ZN5Mafia4voteEPZNKS_4voteERKSt3mapIi12SmartPointerI6PlayerESt4lessIiESaISt4pairIKiS3_EEEiR6LoggeriE94_ZNK5Mafia4voteERKSt3mapIi12SmartPointerI6PlayerESt4lessIiESaISt4pairIKiS3_EEEiR6Loggeri.Frame.actor+0x486>
    86b9:	48 8b 85 08 ff ff ff 	mov    rax,QWORD PTR [rbp-0xf8]
    86c0:	66 c7 40 44 04 00    	mov    WORD PTR [rax+0x44],0x4
    86c6:	48 8b 85 08 ff ff ff 	mov    rax,QWORD PTR [rbp-0xf8]
    86cd:	48 8d 98 98 00 00 00 	lea    rbx,[rax+0x98]
    86d4:	48 8b 85 08 ff ff ff 	mov    rax,QWORD PTR [rbp-0xf8]
    86db:	48 83 c0 18          	add    rax,0x18
    86df:	48 89 c7             	mov    rdi,rax
    86e2:	e8 63 48 01 00       	call   1cf4a <_ZNKSt7__n486116coroutine_handleIN12PlayerAction12promise_typeEEcvNS0_IvEEEv>
    86e7:	48 89 c6             	mov    rsi,rax
    86ea:	48 89 df             	mov    rdi,rbx
    86ed:	e8 5c 0e 01 00       	call   1954e <_ZNKSt7__n486114suspend_always13await_suspendENS_16coroutine_handleIvEE>
    86f2:	eb 44                	jmp    8738 <_ZN5Mafia4voteEPZNKS_4voteERKSt3mapIi12SmartPointerI6PlayerESt4lessIiESaISt4pairIKiS3_EEEiR6LoggeriE94_ZNK5Mafia4voteERKSt3mapIi12SmartPointerI6PlayerESt4lessIiESaISt4pairIKiS3_EEEiR6Loggeri.Frame.actor+0x4c8>
    86f4:	eb 18                	jmp    870e <_ZN5Mafia4voteEPZNKS_4voteERKSt3mapIi12SmartPointerI6PlayerESt4lessIiESaISt4pairIKiS3_EEEiR6LoggeriE94_ZNK5Mafia4voteERKSt3mapIi12SmartPointerI6PlayerESt4lessIiESaISt4pairIKiS3_EEEiR6Loggeri.Frame.actor+0x49e>
    86f6:	48 8b 85 08 ff ff ff 	mov    rax,QWORD PTR [rbp-0xf8]
    86fd:	48 05 98 00 00 00    	add    rax,0x98
    8703:	48 89 c7             	mov    rdi,rax
    8706:	e8 57 0e 01 00       	call   19562 <_ZNKSt7__n486114suspend_always12await_resumeEv>
    870b:	eb 01                	jmp    870e <_ZN5Mafia4voteEPZNKS_4voteERKSt3mapIi12SmartPointerI6PlayerESt4lessIiESaISt4pairIKiS3_EEEiR6LoggeriE94_ZNK5Mafia4voteERKSt3mapIi12SmartPointerI6PlayerESt4lessIiESaISt4pairIKiS3_EEEiR6Loggeri.Frame.actor+0x49e>
    870d:	90                   	nop
    870e:	48 8b 85 08 ff ff ff 	mov    rax,QWORD PTR [rbp-0xf8]
    8715:	0f b6 40 46          	movzx  eax,BYTE PTR [rax+0x46]
    8719:	0f b6 c0             	movzx  eax,al
    871c:	85 c0                	test   eax,eax
    871e:	0f 84 2f 01 00 00    	je     8853 <_ZN5Mafia4voteEPZNKS_4voteERKSt3mapIi12SmartPointerI6PlayerESt4lessIiESaISt4pairIKiS3_EEEiR6LoggeriE94_ZNK5Mafia4voteERKSt3mapIi12SmartPointerI6PlayerESt4lessIiESaISt4pairIKiS3_EEEiR6Loggeri.Frame.actor+0x5e3>
    8724:	48 8b 85 08 ff ff ff 	mov    rax,QWORD PTR [rbp-0xf8]
    872b:	48 89 c7             	mov    rdi,rax
    872e:	e8 6d e0 ff ff       	call   67a0 <_ZdlPv@plt>
    8733:	e9 1b 01 00 00       	jmp    8853 <_ZN5Mafia4voteEPZNKS_4voteERKSt3mapIi12SmartPointerI6PlayerESt4lessIiESaISt4pairIKiS3_EEEiR6LoggeriE94_ZNK5Mafia4voteERKSt3mapIi12SmartPointerI6PlayerESt4lessIiESaISt4pairIKiS3_EEEiR6Loggeri.Frame.actor+0x5e3>
    8738:	f3 0f 1e fa          	endbr64 
    873c:	e9 12 01 00 00       	jmp    8853 <_ZN5Mafia4voteEPZNKS_4voteERKSt3mapIi12SmartPointerI6PlayerESt4lessIiESaISt4pairIKiS3_EEEiR6LoggeriE94_ZNK5Mafia4voteERKSt3mapIi12SmartPointerI6PlayerESt4lessIiESaISt4pairIKiS3_EEEiR6Loggeri.Frame.actor+0x5e3>
    8741:	f3 0f 1e fa          	endbr64 
    8745:	48 89 c3             	mov    rbx,rax
    8748:	48 8d 45 c0          	lea    rax,[rbp-0x40]
    874c:	48 89 c7             	mov    rdi,rax
    874f:	e8 92 2d 01 00       	call   1b4e6 <_ZNSt7__cxx1112basic_stringIcSt11char_traitsIcESaIcEED1Ev>
    8754:	eb 07                	jmp    875d <_ZN5Mafia4voteEPZNKS_4voteERKSt3mapIi12SmartPointerI6PlayerESt4lessIiESaISt4pairIKiS3_EEEiR6LoggeriE94_ZNK5Mafia4voteERKSt3mapIi12SmartPointerI6PlayerESt4lessIiESaISt4pairIKiS3_EEEiR6Loggeri.Frame.actor+0x4ed>
    8756:	f3 0f 1e fa          	endbr64 
    875a:	48 89 c3             	mov    rbx,rax
    875d:	48 8d 45 a0          	lea    rax,[rbp-0x60]
    8761:	48 89 c7             	mov    rdi,rax
    8764:	e8 7d 2d 01 00       	call   1b4e6 <_ZNSt7__cxx1112basic_stringIcSt11char_traitsIcESaIcEED1Ev>
    8769:	eb 07                	jmp    8772 <_ZN5Mafia4voteEPZNKS_4voteERKSt3mapIi12SmartPointerI6PlayerESt4lessIiESaISt4pairIKiS3_EEEiR6LoggeriE94_ZNK5Mafia4voteERKSt3mapIi12SmartPointerI6PlayerESt4lessIiESaISt4pairIKiS3_EEEiR6Loggeri.Frame.actor+0x502>
    876b:	f3 0f 1e fa          	endbr64 
    876f:	48 89 c3             	mov    rbx,rax
    8772:	48 8d 85 60 ff ff ff 	lea    rax,[rbp-0xa0]
    8779:	48 89 c7             	mov    rdi,rax
    877c:	e8 65 2d 01 00       	call   1b4e6 <_ZNSt7__cxx1112basic_stringIcSt11char_traitsIcESaIcEED1Ev>
    8781:	eb 07                	jmp    878a <_ZN5Mafia4voteEPZNKS_4voteERKSt3mapIi12SmartPointerI6PlayerESt4lessIiESaISt4pairIKiS3_EEEiR6LoggeriE94_ZNK5Mafia4voteERKSt3mapIi12SmartPointerI6PlayerESt4lessIiESaISt4pairIKiS3_EEEiR6Loggeri.Frame.actor+0x51a>
    8783:	f3 0f 1e fa          	endbr64 
    8787:	48 89 c3             	mov    rbx,rax
    878a:	48 8d 85 40 ff ff ff 	lea    rax,[rbp-0xc0]
    8791:	48 89 c7             	mov    rdi,rax
    8794:	e8 4d 2d 01 00       	call   1b4e6 <_ZNSt7__cxx1112basic_stringIcSt11char_traitsIcESaIcEED1Ev>
    8799:	eb 07                	jmp    87a2 <_ZN5Mafia4voteEPZNKS_4voteERKSt3mapIi12SmartPointerI6PlayerESt4lessIiESaISt4pairIKiS3_EEEiR6LoggeriE94_ZNK5Mafia4voteERKSt3mapIi12SmartPointerI6PlayerESt4lessIiESaISt4pairIKiS3_EEEiR6Loggeri.Frame.actor+0x532>
    879b:	f3 0f 1e fa          	endbr64 
    879f:	48 89 c3             	mov    rbx,rax
    87a2:	48 8d 85 20 ff ff ff 	lea    rax,[rbp-0xe0]
    87a9:	48 89 c7             	mov    rdi,rax
    87ac:	e8 35 2d 01 00       	call   1b4e6 <_ZNSt7__cxx1112basic_stringIcSt11char_traitsIcESaIcEED1Ev>
    87b1:	eb 07                	jmp    87ba <_ZN5Mafia4voteEPZNKS_4voteERKSt3mapIi12SmartPointerI6PlayerESt4lessIiESaISt4pairIKiS3_EEEiR6LoggeriE94_ZNK5Mafia4voteERKSt3mapIi12SmartPointerI6PlayerESt4lessIiESaISt4pairIKiS3_EEEiR6Loggeri.Frame.actor+0x54a>
    87b3:	f3 0f 1e fa          	endbr64 
    87b7:	48 89 c3             	mov    rbx,rax
    87ba:	48 8d 45 80          	lea    rax,[rbp-0x80]
    87be:	48 89 c7             	mov    rdi,rax
    87c1:	e8 20 2d 01 00       	call   1b4e6 <_ZNSt7__cxx1112basic_stringIcSt11char_traitsIcESaIcEED1Ev>
    87c6:	eb 07                	jmp    87cf <_ZN5Mafia4voteEPZNKS_4voteERKSt3mapIi12SmartPointerI6PlayerESt4lessIiESaISt4pairIKiS3_EEEiR6LoggeriE94_ZNK5Mafia4voteERKSt3mapIi12SmartPointerI6PlayerESt4lessIiESaISt4pairIKiS3_EEEiR6Loggeri.Frame.actor+0x55f>
    87c8:	f3 0f 1e fa          	endbr64 
    87cc:	48 89 c3             	mov    rbx,rax
    87cf:	48 8b 85 08 ff ff ff 	mov    rax,QWORD PTR [rbp-0xf8]
    87d6:	48 83 c0 50          	add    rax,0x50
    87da:	48 89 c7             	mov    rdi,rax
    87dd:	e8 66 48 01 00       	call   1d048 <_ZNSt6vectorIiSaIiEED1Ev>
    87e2:	48 89 d8             	mov    rax,rbx
    87e5:	48 89 c7             	mov    rdi,rax
    87e8:	e8 e3 dd ff ff       	call   65d0 <__cxa_begin_catch@plt>
    87ed:	48 8b 85 08 ff ff ff 	mov    rax,QWORD PTR [rbp-0xf8]
    87f4:	0f b6 40 47          	movzx  eax,BYTE PTR [rax+0x47]
    87f8:	83 f0 01             	xor    eax,0x1
    87fb:	84 c0                	test   al,al
    87fd:	74 05                	je     8804 <_ZN5Mafia4voteEPZNKS_4voteERKSt3mapIi12SmartPointerI6PlayerESt4lessIiESaISt4pairIKiS3_EEEiR6LoggeriE94_ZNK5Mafia4voteERKSt3mapIi12SmartPointerI6PlayerESt4lessIiESaISt4pairIKiS3_EEEiR6Loggeri.Frame.actor+0x594>
    87ff:	e8 ec e0 ff ff       	call   68f0 <__cxa_rethrow@plt>
    8804:	48 8b 85 08 ff ff ff 	mov    rax,QWORD PTR [rbp-0xf8]
    880b:	48 c7 00 00 00 00 00 	mov    QWORD PTR [rax],0x0
    8812:	48 8b 85 08 ff ff ff 	mov    rax,QWORD PTR [rbp-0xf8]
    8819:	66 c7 40 44 00 00    	mov    WORD PTR [rax+0x44],0x0
    881f:	48 8b 85 08 ff ff ff 	mov    rax,QWORD PTR [rbp-0xf8]
    8826:	48 83 c0 10          	add    rax,0x10
    882a:	48 89 c7             	mov    rdi,rax
    882d:	e8 c4 15 01 00       	call   19df6 <_ZN12PlayerAction12promise_type19unhandled_exceptionEv>
    8832:	e8 19 e1 ff ff       	call   6950 <__cxa_end_catch@plt>
    8837:	e9 40 fe ff ff       	jmp    867c <_ZN5Mafia4voteEPZNKS_4voteERKSt3mapIi12SmartPointerI6PlayerESt4lessIiESaISt4pairIKiS3_EEEiR6LoggeriE94_ZNK5Mafia4voteERKSt3mapIi12SmartPointerI6PlayerESt4lessIiESaISt4pairIKiS3_EEEiR6Loggeri.Frame.actor+0x40c>
    883c:	f3 0f 1e fa          	endbr64 
    8840:	48 89 c3             	mov    rbx,rax
    8843:	e8 08 e1 ff ff       	call   6950 <__cxa_end_catch@plt>
    8848:	48 89 d8             	mov    rax,rbx
    884b:	48 89 c7             	mov    rdi,rax
    884e:	e8 4d e1 ff ff       	call   69a0 <_Unwind_Resume@plt>
    8853:	90                   	nop
    8854:	48 8b 45 e8          	mov    rax,QWORD PTR [rbp-0x18]
    8858:	64 48 2b 04 25 28 00 	sub    rax,QWORD PTR fs:0x28
    885f:	00 00 
    8861:	74 05                	je     8868 <_ZN5Mafia4voteEPZNKS_4voteERKSt3mapIi12SmartPointerI6PlayerESt4lessIiESaISt4pairIKiS3_EEEiR6LoggeriE94_ZNK5Mafia4voteERKSt3mapIi12SmartPointerI6PlayerESt4lessIiESaISt4pairIKiS3_EEEiR6Loggeri.Frame.actor+0x5f8>
    8863:	e8 d8 df ff ff       	call   6840 <__stack_chk_fail@plt>
    8868:	48 8b 5d f8          	mov    rbx,QWORD PTR [rbp-0x8]
    886c:	c9                   	leave  
    886d:	c3                   	ret    

000000000000886e <_ZN5Mafia4voteEPZNKS_4voteERKSt3mapIi12SmartPointerI6PlayerESt4lessIiESaISt4pairIKiS3_EEEiR6LoggeriE94_ZNK5Mafia4voteERKSt3mapIi12SmartPointerI6PlayerESt4lessIiESaISt4pairIKiS3_EEEiR6Loggeri.Frame.destroy>:
    886e:	f3 0f 1e fa          	endbr64 
    8872:	55                   	push   rbp
    8873:	48 89 e5             	mov    rbp,rsp
    8876:	48 83 ec 10          	sub    rsp,0x10
    887a:	48 89 7d f8          	mov    QWORD PTR [rbp-0x8],rdi
    887e:	48 8b 45 f8          	mov    rax,QWORD PTR [rbp-0x8]
    8882:	0f b7 40 44          	movzx  eax,WORD PTR [rax+0x44]
    8886:	83 c8 01             	or     eax,0x1
    8889:	89 c2                	mov    edx,eax
    888b:	48 8b 45 f8          	mov    rax,QWORD PTR [rbp-0x8]
    888f:	66 89 50 44          	mov    WORD PTR [rax+0x44],dx
    8893:	48 8b 45 f8          	mov    rax,QWORD PTR [rbp-0x8]
    8897:	48 89 c7             	mov    rdi,rax
    889a:	e8 d1 f9 ff ff       	call   8270 <_ZN5Mafia4voteEPZNKS_4voteERKSt3mapIi12SmartPointerI6PlayerESt4lessIiESaISt4pairIKiS3_EEEiR6LoggeriE94_ZNK5Mafia4voteERKSt3mapIi12SmartPointerI6PlayerESt4lessIiESaISt4pairIKiS3_EEEiR6Loggeri.Frame.actor>
    889f:	c9                   	leave  
    88a0:	c3                   	ret    
    88a1:	90                   	nop

00000000000088a2 <_ZN12Commissioner3actEPZNKS_3actERKSt3mapIi12SmartPointerI6PlayerESt4lessIiESaISt4pairIKiS3_EEEiR6LoggeribE102_ZNK12Commissioner3actERKSt3mapIi12SmartPointerI6PlayerESt4lessIiESaISt4pairIKiS3_EEEiR6Loggerib.Frame.actor>:
    88a2:	f3 0f 1e fa          	endbr64 
    88a6:	55                   	push   rbp
    88a7:	48 89 e5             	mov    rbp,rsp
    88aa:	53                   	push   rbx
    88ab:	48 81 ec 98 00 00 00 	sub    rsp,0x98
    88b2:	48 89 bd 68 ff ff ff 	mov    QWORD PTR [rbp-0x98],rdi
    88b9:	64 48 8b 04 25 28 00 	mov    rax,QWORD PTR fs:0x28
    88c0:	00 00 
    88c2:	48 89 45 e8          	mov    QWORD PTR [rbp-0x18],rax
    88c6:	31 c0                	xor    eax,eax
    88c8:	48 8b 85 68 ff ff ff 	mov    rax,QWORD PTR [rbp-0x98]
    88cf:	0f b7 40 46          	movzx  eax,WORD PTR [rax+0x46]
    88d3:	83 e0 01             	and    eax,0x1
    88d6:	66 85 c0             	test   ax,ax
    88d9:	74 30                	je     890b <_ZN12Commissioner3actEPZNKS_3actERKSt3mapIi12SmartPointerI6PlayerESt4lessIiESaISt4pairIKiS3_EEEiR6LoggeribE102_ZNK12Commissioner3actERKSt3mapIi12SmartPointerI6PlayerESt4lessIiESaISt4pairIKiS3_EEEiR6Loggerib.Frame.actor+0x69>
    88db:	48 8b 85 68 ff ff ff 	mov    rax,QWORD PTR [rbp-0x98]
    88e2:	0f b7 40 46          	movzx  eax,WORD PTR [rax+0x46]
    88e6:	0f b7 c0             	movzx  eax,ax
    88e9:	83 f8 05             	cmp    eax,0x5
    88ec:	0f 84 c6 07 00 00    	je     90b8 <_ZN12Commissioner3actEPZNKS_3actERKSt3mapIi12SmartPointerI6PlayerESt4lessIiESaISt4pairIKiS3_EEEiR6LoggeribE102_ZNK12Commissioner3actERKSt3mapIi12SmartPointerI6PlayerESt4lessIiESaISt4pairIKiS3_EEEiR6Loggerib.Frame.actor+0x816>
    88f2:	83 f8 05             	cmp    eax,0x5
    88f5:	7f 12                	jg     8909 <_ZN12Commissioner3actEPZNKS_3actERKSt3mapIi12SmartPointerI6PlayerESt4lessIiESaISt4pairIKiS3_EEEiR6LoggeribE102_ZNK12Commissioner3actERKSt3mapIi12SmartPointerI6PlayerESt4lessIiESaISt4pairIKiS3_EEEiR6Loggerib.Frame.actor+0x67>
    88f7:	83 f8 01             	cmp    eax,0x1
    88fa:	0f 84 d1 07 00 00    	je     90d1 <_ZN12Commissioner3actEPZNKS_3actERKSt3mapIi12SmartPointerI6PlayerESt4lessIiESaISt4pairIKiS3_EEEiR6LoggeribE102_ZNK12Commissioner3actERKSt3mapIi12SmartPointerI6PlayerESt4lessIiESaISt4pairIKiS3_EEEiR6Loggerib.Frame.actor+0x82f>
    8900:	83 f8 03             	cmp    eax,0x3
    8903:	0f 84 be 00 00 00    	je     89c7 <_ZN12Commissioner3actEPZNKS_3actERKSt3mapIi12SmartPointerI6PlayerESt4lessIiESaISt4pairIKiS3_EEEiR6LoggeribE102_ZNK12Commissioner3actERKSt3mapIi12SmartPointerI6PlayerESt4lessIiESaISt4pairIKiS3_EEEiR6Loggerib.Frame.actor+0x125>
    8909:	0f 0b                	ud2    
    890b:	48 8b 85 68 ff ff ff 	mov    rax,QWORD PTR [rbp-0x98]
    8912:	0f b7 40 46          	movzx  eax,WORD PTR [rax+0x46]
    8916:	0f b7 c0             	movzx  eax,ax
    8919:	83 f8 04             	cmp    eax,0x4
    891c:	0f 84 98 07 00 00    	je     90ba <_ZN12Commissioner3actEPZNKS_3actERKSt3mapIi12SmartPointerI6PlayerESt4lessIiESaISt4pairIKiS3_EEEiR6LoggeribE102_ZNK12Commissioner3actERKSt3mapIi12SmartPointerI6PlayerESt4lessIiESaISt4pairIKiS3_EEEiR6Loggerib.Frame.actor+0x818>
    8922:	83 f8 04             	cmp    eax,0x4
    8925:	7f 63                	jg     898a <_ZN12Commissioner3actEPZNKS_3actERKSt3mapIi12SmartPointerI6PlayerESt4lessIiESaISt4pairIKiS3_EEEiR6LoggeribE102_ZNK12Commissioner3actERKSt3mapIi12SmartPointerI6PlayerESt4lessIiESaISt4pairIKiS3_EEEiR6Loggerib.Frame.actor+0xe8>
    8927:	85 c0                	test   eax,eax
    8929:	74 0b                	je     8936 <_ZN12Commissioner3actEPZNKS_3actERKSt3mapIi12SmartPointerI6PlayerESt4lessIiESaISt4pairIKiS3_EEEiR6LoggeribE102_ZNK12Commissioner3actERKSt3mapIi12SmartPointerI6PlayerESt4lessIiESaISt4pairIKiS3_EEEiR6Loggerib.Frame.actor+0x94>
    892b:	83 f8 02             	cmp    eax,0x2
    892e:	0f 84 98 00 00 00    	je     89cc <_ZN12Commissioner3actEPZNKS_3actERKSt3mapIi12SmartPointerI6PlayerESt4lessIiESaISt4pairIKiS3_EEEiR6LoggeribE102_ZNK12Commissioner3actERKSt3mapIi12SmartPointerI6PlayerESt4lessIiESaISt4pairIKiS3_EEEiR6Loggerib.Frame.actor+0x12a>
    8934:	eb 54                	jmp    898a <_ZN12Commissioner3actEPZNKS_3actERKSt3mapIi12SmartPointerI6PlayerESt4lessIiESaISt4pairIKiS3_EEEiR6LoggeribE102_ZNK12Commissioner3actERKSt3mapIi12SmartPointerI6PlayerESt4lessIiESaISt4pairIKiS3_EEEiR6Loggerib.Frame.actor+0xe8>
    8936:	48 8b 9d 68 ff ff ff 	mov    rbx,QWORD PTR [rbp-0x98]
    893d:	48 8b 85 68 ff ff ff 	mov    rax,QWORD PTR [rbp-0x98]
    8944:	48 89 c7             	mov    rdi,rax
    8947:	e8 24 46 01 00       	call   1cf70 <_ZNSt7__n486116coroutine_handleIN12PlayerAction12promise_typeEE12from_addressEPv>
    894c:	48 89 43 18          	mov    QWORD PTR [rbx+0x18],rax
    8950:	48 8b 85 68 ff ff ff 	mov    rax,QWORD PTR [rbp-0x98]
    8957:	c6 40 49 00          	mov    BYTE PTR [rax+0x49],0x0
    895b:	48 8b 85 68 ff ff ff 	mov    rax,QWORD PTR [rbp-0x98]
    8962:	48 83 c0 10          	add    rax,0x10
    8966:	48 89 c7             	mov    rdi,rax
    8969:	e8 58 14 01 00       	call   19dc6 <_ZN12PlayerAction12promise_type15initial_suspendEv>
    896e:	48 8b 85 68 ff ff ff 	mov    rax,QWORD PTR [rbp-0x98]
    8975:	48 83 c0 4a          	add    rax,0x4a
    8979:	48 89 c7             	mov    rdi,rax
    897c:	e8 b9 0b 01 00       	call   1953a <_ZNKSt7__n486114suspend_always11await_readyEv>
    8981:	83 f0 01             	xor    eax,0x1
    8984:	84 c0                	test   al,al
    8986:	75 04                	jne    898c <_ZN12Commissioner3actEPZNKS_3actERKSt3mapIi12SmartPointerI6PlayerESt4lessIiESaISt4pairIKiS3_EEEiR6LoggeribE102_ZNK12Commissioner3actERKSt3mapIi12SmartPointerI6PlayerESt4lessIiESaISt4pairIKiS3_EEEiR6Loggerib.Frame.actor+0xea>
    8988:	eb 42                	jmp    89cc <_ZN12Commissioner3actEPZNKS_3actERKSt3mapIi12SmartPointerI6PlayerESt4lessIiESaISt4pairIKiS3_EEEiR6LoggeribE102_ZNK12Commissioner3actERKSt3mapIi12SmartPointerI6PlayerESt4lessIiESaISt4pairIKiS3_EEEiR6Loggerib.Frame.actor+0x12a>
    898a:	0f 0b                	ud2    
    898c:	48 8b 85 68 ff ff ff 	mov    rax,QWORD PTR [rbp-0x98]
    8993:	66 c7 40 46 02 00    	mov    WORD PTR [rax+0x46],0x2
    8999:	48 8b 85 68 ff ff ff 	mov    rax,QWORD PTR [rbp-0x98]
    89a0:	48 8d 58 4a          	lea    rbx,[rax+0x4a]
    89a4:	48 8b 85 68 ff ff ff 	mov    rax,QWORD PTR [rbp-0x98]
    89ab:	48 83 c0 18          	add    rax,0x18
    89af:	48 89 c7             	mov    rdi,rax
    89b2:	e8 93 45 01 00       	call   1cf4a <_ZNKSt7__n486116coroutine_handleIN12PlayerAction12promise_typeEEcvNS0_IvEEEv>
    89b7:	48 89 c6             	mov    rsi,rax
    89ba:	48 89 df             	mov    rdi,rbx
    89bd:	e8 8c 0b 01 00       	call   1954e <_ZNKSt7__n486114suspend_always13await_suspendENS_16coroutine_handleIvEE>
    89c2:	e9 35 07 00 00       	jmp    90fc <_ZN12Commissioner3actEPZNKS_3actERKSt3mapIi12SmartPointerI6PlayerESt4lessIiESaISt4pairIKiS3_EEEiR6LoggeribE102_ZNK12Commissioner3actERKSt3mapIi12SmartPointerI6PlayerESt4lessIiESaISt4pairIKiS3_EEEiR6Loggerib.Frame.actor+0x85a>
    89c7:	e9 06 07 00 00       	jmp    90d2 <_ZN12Commissioner3actEPZNKS_3actERKSt3mapIi12SmartPointerI6PlayerESt4lessIiESaISt4pairIKiS3_EEEiR6LoggeribE102_ZNK12Commissioner3actERKSt3mapIi12SmartPointerI6PlayerESt4lessIiESaISt4pairIKiS3_EEEiR6Loggerib.Frame.actor+0x830>
    89cc:	48 8b 85 68 ff ff ff 	mov    rax,QWORD PTR [rbp-0x98]
    89d3:	c6 40 49 01          	mov    BYTE PTR [rax+0x49],0x1
    89d7:	48 8b 85 68 ff ff ff 	mov    rax,QWORD PTR [rbp-0x98]
    89de:	48 83 c0 4a          	add    rax,0x4a
    89e2:	48 89 c7             	mov    rdi,rax
    89e5:	e8 78 0b 01 00       	call   19562 <_ZNKSt7__n486114suspend_always12await_resumeEv>
    89ea:	48 8b 85 68 ff ff ff 	mov    rax,QWORD PTR [rbp-0x98]
    89f1:	48 8b 40 20          	mov    rax,QWORD PTR [rax+0x20]
    89f5:	8b 40 10             	mov    eax,DWORD PTR [rax+0x10]
    89f8:	83 f8 ff             	cmp    eax,0xffffffff
    89fb:	74 6d                	je     8a6a <_ZN12Commissioner3actEPZNKS_3actERKSt3mapIi12SmartPointerI6PlayerESt4lessIiESaISt4pairIKiS3_EEEiR6LoggeribE102_ZNK12Commissioner3actERKSt3mapIi12SmartPointerI6PlayerESt4lessIiESaISt4pairIKiS3_EEEiR6Loggerib.Frame.actor+0x1c8>
    89fd:	48 8b 85 68 ff ff ff 	mov    rax,QWORD PTR [rbp-0x98]
    8a04:	48 8b 40 28          	mov    rax,QWORD PTR [rax+0x28]
    8a08:	48 89 c7             	mov    rdi,rax
    8a0b:	e8 9e 46 01 00       	call   1d0ae <_ZNKSt3mapIi12SmartPointerI6PlayerESt4lessIiESaISt4pairIKiS2_EEE3endEv>
    8a10:	48 89 85 78 ff ff ff 	mov    QWORD PTR [rbp-0x88],rax
    8a17:	48 8b 85 68 ff ff ff 	mov    rax,QWORD PTR [rbp-0x98]
    8a1e:	48 8b 40 28          	mov    rax,QWORD PTR [rax+0x28]
    8a22:	48 8b 95 68 ff ff ff 	mov    rdx,QWORD PTR [rbp-0x98]
    8a29:	48 8b 52 20          	mov    rdx,QWORD PTR [rdx+0x20]
    8a2d:	48 83 c2 10          	add    rdx,0x10
    8a31:	48 89 d6             	mov    rsi,rdx
    8a34:	48 89 c7             	mov    rdi,rax
    8a37:	e8 b8 4c 01 00       	call   1d6f4 <_ZNKSt3mapIi12SmartPointerI6PlayerESt4lessIiESaISt4pairIKiS2_EEE4findERS6_>
    8a3c:	48 89 85 70 ff ff ff 	mov    QWORD PTR [rbp-0x90],rax
    8a43:	48 8d 95 78 ff ff ff 	lea    rdx,[rbp-0x88]
    8a4a:	48 8d 85 70 ff ff ff 	lea    rax,[rbp-0x90]
    8a51:	48 89 d6             	mov    rsi,rdx
    8a54:	48 89 c7             	mov    rdi,rax
    8a57:	e8 70 46 01 00       	call   1d0cc <_ZSteqRKSt23_Rb_tree_const_iteratorISt4pairIKi12SmartPointerI6PlayerEEES8_>
    8a5c:	83 f0 01             	xor    eax,0x1
    8a5f:	84 c0                	test   al,al
    8a61:	74 07                	je     8a6a <_ZN12Commissioner3actEPZNKS_3actERKSt3mapIi12SmartPointerI6PlayerESt4lessIiESaISt4pairIKiS3_EEEiR6LoggeribE102_ZNK12Commissioner3actERKSt3mapIi12SmartPointerI6PlayerESt4lessIiESaISt4pairIKiS3_EEEiR6Loggerib.Frame.actor+0x1c8>
    8a63:	b8 01 00 00 00       	mov    eax,0x1
    8a68:	eb 05                	jmp    8a6f <_ZN12Commissioner3actEPZNKS_3actERKSt3mapIi12SmartPointerI6PlayerESt4lessIiESaISt4pairIKiS3_EEEiR6LoggeribE102_ZNK12Commissioner3actERKSt3mapIi12SmartPointerI6PlayerESt4lessIiESaISt4pairIKiS3_EEEiR6Loggerib.Frame.actor+0x1cd>
    8a6a:	b8 00 00 00 00       	mov    eax,0x0
    8a6f:	84 c0                	test   al,al
    8a71:	0f 84 dd 00 00 00    	je     8b54 <_ZN12Commissioner3actEPZNKS_3actERKSt3mapIi12SmartPointerI6PlayerESt4lessIiESaISt4pairIKiS3_EEEiR6LoggeribE102_ZNK12Commissioner3actERKSt3mapIi12SmartPointerI6PlayerESt4lessIiESaISt4pairIKiS3_EEEiR6Loggerib.Frame.actor+0x2b2>
    8a77:	48 8b 85 68 ff ff ff 	mov    rax,QWORD PTR [rbp-0x98]
    8a7e:	48 8b 50 20          	mov    rdx,QWORD PTR [rax+0x20]
    8a82:	48 8b 85 68 ff ff ff 	mov    rax,QWORD PTR [rbp-0x98]
    8a89:	48 8b 40 20          	mov    rax,QWORD PTR [rax+0x20]
    8a8d:	8b 52 10             	mov    edx,DWORD PTR [rdx+0x10]
    8a90:	89 50 14             	mov    DWORD PTR [rax+0x14],edx
    8a93:	48 8b 85 68 ff ff ff 	mov    rax,QWORD PTR [rbp-0x98]
    8a9a:	48 8b 40 20          	mov    rax,QWORD PTR [rax+0x20]
    8a9e:	c7 40 10 ff ff ff ff 	mov    DWORD PTR [rax+0x10],0xffffffff
    8aa5:	48 8b 85 68 ff ff ff 	mov    rax,QWORD PTR [rbp-0x98]
    8aac:	48 8b 58 38          	mov    rbx,QWORD PTR [rax+0x38]
    8ab0:	48 8b 85 68 ff ff ff 	mov    rax,QWORD PTR [rbp-0x98]
    8ab7:	48 8b 40 20          	mov    rax,QWORD PTR [rax+0x20]
    8abb:	8b 50 14             	mov    edx,DWORD PTR [rax+0x14]
    8abe:	48 8d 45 80          	lea    rax,[rbp-0x80]
    8ac2:	89 d6                	mov    esi,edx
    8ac4:	48 89 c7             	mov    rdi,rax
    8ac7:	e8 f5 f8 00 00       	call   183c1 <_ZNSt7__cxx119to_stringEi>
    8acc:	48 8d 45 a0          	lea    rax,[rbp-0x60]
    8ad0:	48 8d 55 80          	lea    rdx,[rbp-0x80]
    8ad4:	48 8d 0d ad 16 02 00 	lea    rcx,[rip+0x216ad]        # 2a188 <_ZN9__gnu_cxxL21__default_lock_policyE+0x148>
    8adb:	48 89 ce             	mov    rsi,rcx
    8ade:	48 89 c7             	mov    rdi,rax
    8ae1:	e8 ed 2d 01 00       	call   1b8d3 <_ZStplIcSt11char_traitsIcESaIcEENSt7__cxx1112basic_stringIT_T0_T1_EEPKS5_OS8_>
    8ae6:	48 8d 45 c0          	lea    rax,[rbp-0x40]
    8aea:	48 8d 4d a0          	lea    rcx,[rbp-0x60]
    8aee:	48 8d 15 c3 16 02 00 	lea    rdx,[rip+0x216c3]        # 2a1b8 <_ZN9__gnu_cxxL21__default_lock_policyE+0x178>
    8af5:	48 89 ce             	mov    rsi,rcx
    8af8:	48 89 c7             	mov    rdi,rax
    8afb:	e8 f5 41 01 00       	call   1ccf5 <_ZStplIcSt11char_traitsIcESaIcEENSt7__cxx1112basic_stringIT_T0_T1_EEOS8_PKS5_>
    8b00:	48 8b 85 68 ff ff ff 	mov    rax,QWORD PTR [rbp-0x98]
    8b07:	8b 40 40             	mov    eax,DWORD PTR [rax+0x40]
    8b0a:	48 8d 55 c0          	lea    rdx,[rbp-0x40]
    8b0e:	89 c6                	mov    esi,eax
    8b10:	48 89 df             	mov    rdi,rbx
    8b13:	e8 d4 0e 01 00       	call   199ec <_ZN6Logger8logRoundEiRKNSt7__cxx1112basic_stringIcSt11char_traitsIcESaIcEEE>
    8b18:	48 8d 45 c0          	lea    rax,[rbp-0x40]
    8b1c:	48 89 c7             	mov    rdi,rax
    8b1f:	e8 c2 29 01 00       	call   1b4e6 <_ZNSt7__cxx1112basic_stringIcSt11char_traitsIcESaIcEED1Ev>
    8b24:	48 8d 45 a0          	lea    rax,[rbp-0x60]
    8b28:	48 89 c7             	mov    rdi,rax
    8b2b:	e8 b6 29 01 00       	call   1b4e6 <_ZNSt7__cxx1112basic_stringIcSt11char_traitsIcESaIcEED1Ev>
    8b30:	48 8d 45 80          	lea    rax,[rbp-0x80]
    8b34:	48 89 c7             	mov    rdi,rax
    8b37:	e8 aa 29 01 00       	call   1b4e6 <_ZNSt7__cxx1112basic_stringIcSt11char_traitsIcESaIcEED1Ev>
    8b3c:	48 8b 85 68 ff ff ff 	mov    rax,QWORD PTR [rbp-0x98]
    8b43:	48 83 c0 10          	add    rax,0x10
    8b47:	48 89 c7             	mov    rdi,rax
    8b4a:	e8 97 12 01 00       	call   19de6 <_ZN12PlayerAction12promise_type11return_voidEv>
    8b4f:	e9 ec 04 00 00       	jmp    9040 <_ZN12Commissioner3actEPZNKS_3actERKSt3mapIi12SmartPointerI6PlayerESt4lessIiESaISt4pairIKiS3_EEEiR6LoggeribE102_ZNK12Commissioner3actERKSt3mapIi12SmartPointerI6PlayerESt4lessIiESaISt4pairIKiS3_EEEiR6Loggerib.Frame.actor+0x79e>
    8b54:	48 8b 85 68 ff ff ff 	mov    rax,QWORD PTR [rbp-0x98]
    8b5b:	48 83 c0 50          	add    rax,0x50
    8b5f:	48 89 c7             	mov    rdi,rax
    8b62:	e8 a5 14 01 00       	call   1a00c <_ZNSt6vectorIiSaIiEEC1Ev>
    8b67:	48 8b 85 68 ff ff ff 	mov    rax,QWORD PTR [rbp-0x98]
    8b6e:	48 8b 50 28          	mov    rdx,QWORD PTR [rax+0x28]
    8b72:	48 8b 85 68 ff ff ff 	mov    rax,QWORD PTR [rbp-0x98]
    8b79:	48 89 90 80 00 00 00 	mov    QWORD PTR [rax+0x80],rdx
    8b80:	48 8b 85 68 ff ff ff 	mov    rax,QWORD PTR [rbp-0x98]
    8b87:	48 8b 80 80 00 00 00 	mov    rax,QWORD PTR [rax+0x80]
    8b8e:	48 8b 9d 68 ff ff ff 	mov    rbx,QWORD PTR [rbp-0x98]
    8b95:	48 89 c7             	mov    rdi,rax
    8b98:	e8 f3 44 01 00       	call   1d090 <_ZNKSt3mapIi12SmartPointerI6PlayerESt4lessIiESaISt4pairIKiS2_EEE5beginEv>
    8b9d:	48 89 83 88 00 00 00 	mov    QWORD PTR [rbx+0x88],rax
    8ba4:	48 8b 85 68 ff ff ff 	mov    rax,QWORD PTR [rbp-0x98]
    8bab:	48 8b 80 80 00 00 00 	mov    rax,QWORD PTR [rax+0x80]
    8bb2:	48 8b 9d 68 ff ff ff 	mov    rbx,QWORD PTR [rbp-0x98]
    8bb9:	48 89 c7             	mov    rdi,rax
    8bbc:	e8 ed 44 01 00       	call   1d0ae <_ZNKSt3mapIi12SmartPointerI6PlayerESt4lessIiESaISt4pairIKiS2_EEE3endEv>
    8bc1:	48 89 83 90 00 00 00 	mov    QWORD PTR [rbx+0x90],rax
    8bc8:	e9 24 01 00 00       	jmp    8cf1 <_ZN12Commissioner3actEPZNKS_3actERKSt3mapIi12SmartPointerI6PlayerESt4lessIiESaISt4pairIKiS3_EEEiR6LoggeribE102_ZNK12Commissioner3actERKSt3mapIi12SmartPointerI6PlayerESt4lessIiESaISt4pairIKiS3_EEEiR6Loggerib.Frame.actor+0x44f>
    8bcd:	48 8b 85 68 ff ff ff 	mov    rax,QWORD PTR [rbp-0x98]
    8bd4:	48 05 88 00 00 00    	add    rax,0x88
    8bda:	48 89 c7             	mov    rdi,rax
    8bdd:	e8 3c 45 01 00       	call   1d11e <_ZNKSt23_Rb_tree_const_iteratorISt4pairIKi12SmartPointerI6PlayerEEEdeEv>
    8be2:	48 8b 95 68 ff ff ff 	mov    rdx,QWORD PTR [rbp-0x98]
    8be9:	48 89 42 68          	mov    QWORD PTR [rdx+0x68],rax
    8bed:	48 8b 85 68 ff ff ff 	mov    rax,QWORD PTR [rbp-0x98]
    8bf4:	48 8b 40 68          	mov    rax,QWORD PTR [rax+0x68]
    8bf8:	48 89 c7             	mov    rdi,rax
    8bfb:	e8 2b 14 01 00       	call   1a02b <_ZSt3getILm0EKi12SmartPointerI6PlayerEERKNSt13tuple_elementIXT_ESt4pairIT0_T1_EE4typeERKS8_>
    8c00:	48 8b 95 68 ff ff ff 	mov    rdx,QWORD PTR [rbp-0x98]
    8c07:	48 89 42 70          	mov    QWORD PTR [rdx+0x70],rax
    8c0b:	48 8b 85 68 ff ff ff 	mov    rax,QWORD PTR [rbp-0x98]
    8c12:	48 8b 40 68          	mov    rax,QWORD PTR [rax+0x68]
    8c16:	48 89 c7             	mov    rdi,rax
    8c19:	e8 2b 14 01 00       	call   1a049 <_ZSt3getILm1EKi12SmartPointerI6PlayerEERKNSt13tuple_elementIXT_ESt4pairIT0_T1_EE4typeERKS8_>
    8c1e:	48 8b 95 68 ff ff ff 	mov    rdx,QWORD PTR [rbp-0x98]
    8c25:	48 89 42 78          	mov    QWORD PTR [rdx+0x78],rax
    8c29:	48 8b 85 68 ff ff ff 	mov    rax,QWORD PTR [rbp-0x98]
    8c30:	48 8b 40 70          	mov    rax,QWORD PTR [rax+0x70]
    8c34:	8b 10                	mov    edx,DWORD PTR [rax]
    8c36:	48 8b 85 68 ff ff ff 	mov    rax,QWORD PTR [rbp-0x98]
    8c3d:	8b 40 30             	mov    eax,DWORD PTR [rax+0x30]
    8c40:	39 c2                	cmp    edx,eax
    8c42:	74 6e                	je     8cb2 <_ZN12Commissioner3actEPZNKS_3actERKSt3mapIi12SmartPointerI6PlayerESt4lessIiESaISt4pairIKiS3_EEEiR6LoggeribE102_ZNK12Commissioner3actERKSt3mapIi12SmartPointerI6PlayerESt4lessIiESaISt4pairIKiS3_EEEiR6Loggerib.Frame.actor+0x410>
    8c44:	48 8b 85 68 ff ff ff 	mov    rax,QWORD PTR [rbp-0x98]
    8c4b:	48 8b 40 20          	mov    rax,QWORD PTR [rax+0x20]
    8c4f:	48 83 c0 20          	add    rax,0x20
    8c53:	48 89 c7             	mov    rdi,rax
    8c56:	e8 2b 4b 01 00       	call   1d786 <_ZNKSt3setIiSt4lessIiESaIiEE3endEv>
    8c5b:	48 89 85 78 ff ff ff 	mov    QWORD PTR [rbp-0x88],rax
    8c62:	48 8b 85 68 ff ff ff 	mov    rax,QWORD PTR [rbp-0x98]
    8c69:	48 8b 40 20          	mov    rax,QWORD PTR [rax+0x20]
    8c6d:	48 8d 50 20          	lea    rdx,[rax+0x20]
    8c71:	48 8b 85 68 ff ff ff 	mov    rax,QWORD PTR [rbp-0x98]
    8c78:	48 8b 40 70          	mov    rax,QWORD PTR [rax+0x70]
    8c7c:	48 89 c6             	mov    rsi,rax
    8c7f:	48 89 d7             	mov    rdi,rdx
    8c82:	e8 97 4a 01 00       	call   1d71e <_ZNSt3setIiSt4lessIiESaIiEE4findERKi>
    8c87:	48 89 85 70 ff ff ff 	mov    QWORD PTR [rbp-0x90],rax
    8c8e:	48 8d 95 78 ff ff ff 	lea    rdx,[rbp-0x88]
    8c95:	48 8d 85 70 ff ff ff 	lea    rax,[rbp-0x90]
    8c9c:	48 89 d6             	mov    rsi,rdx
    8c9f:	48 89 c7             	mov    rdi,rax
    8ca2:	e8 fd 4a 01 00       	call   1d7a4 <_ZSteqRKSt23_Rb_tree_const_iteratorIiES2_>
    8ca7:	84 c0                	test   al,al
    8ca9:	74 07                	je     8cb2 <_ZN12Commissioner3actEPZNKS_3actERKSt3mapIi12SmartPointerI6PlayerESt4lessIiESaISt4pairIKiS3_EEEiR6LoggeribE102_ZNK12Commissioner3actERKSt3mapIi12SmartPointerI6PlayerESt4lessIiESaISt4pairIKiS3_EEEiR6Loggerib.Frame.actor+0x410>
    8cab:	b8 01 00 00 00       	mov    eax,0x1
    8cb0:	eb 05                	jmp    8cb7 <_ZN12Commissioner3actEPZNKS_3actERKSt3mapIi12SmartPointerI6PlayerESt4lessIiESaISt4pairIKiS3_EEEiR6LoggeribE102_ZNK12Commissioner3actERKSt3mapIi12SmartPointerI6PlayerESt4lessIiESaISt4pairIKiS3_EEEiR6Loggerib.Frame.actor+0x415>
    8cb2:	b8 00 00 00 00       	mov    eax,0x0
    8cb7:	84 c0                	test   al,al
    8cb9:	74 21                	je     8cdc <_ZN12Commissioner3actEPZNKS_3actERKSt3mapIi12SmartPointerI6PlayerESt4lessIiESaISt4pairIKiS3_EEEiR6LoggeribE102_ZNK12Commissioner3actERKSt3mapIi12SmartPointerI6PlayerESt4lessIiESaISt4pairIKiS3_EEEiR6Loggerib.Frame.actor+0x43a>
    8cbb:	48 8b 85 68 ff ff ff 	mov    rax,QWORD PTR [rbp-0x98]
    8cc2:	48 8d 50 50          	lea    rdx,[rax+0x50]
    8cc6:	48 8b 85 68 ff ff ff 	mov    rax,QWORD PTR [rbp-0x98]
    8ccd:	48 8b 40 70          	mov    rax,QWORD PTR [rax+0x70]
    8cd1:	48 89 c6             	mov    rsi,rax
    8cd4:	48 89 d7             	mov    rdi,rdx
    8cd7:	e8 8c 44 01 00       	call   1d168 <_ZNSt6vectorIiSaIiEE9push_backERKi>
    8cdc:	48 8b 85 68 ff ff ff 	mov    rax,QWORD PTR [rbp-0x98]
    8ce3:	48 05 88 00 00 00    	add    rax,0x88
    8ce9:	48 89 c7             	mov    rdi,rax
    8cec:	e8 01 44 01 00       	call   1d0f2 <_ZNSt23_Rb_tree_const_iteratorISt4pairIKi12SmartPointerI6PlayerEEEppEv>
    8cf1:	48 8b 85 68 ff ff ff 	mov    rax,QWORD PTR [rbp-0x98]
    8cf8:	48 8d 90 90 00 00 00 	lea    rdx,[rax+0x90]
    8cff:	48 8b 85 68 ff ff ff 	mov    rax,QWORD PTR [rbp-0x98]
    8d06:	48 05 88 00 00 00    	add    rax,0x88
    8d0c:	48 89 d6             	mov    rsi,rdx
    8d0f:	48 89 c7             	mov    rdi,rax
    8d12:	e8 b5 43 01 00       	call   1d0cc <_ZSteqRKSt23_Rb_tree_const_iteratorISt4pairIKi12SmartPointerI6PlayerEEES8_>
    8d17:	83 f0 01             	xor    eax,0x1
    8d1a:	84 c0                	test   al,al
    8d1c:	0f 85 ab fe ff ff    	jne    8bcd <_ZN12Commissioner3actEPZNKS_3actERKSt3mapIi12SmartPointerI6PlayerESt4lessIiESaISt4pairIKiS3_EEEiR6LoggeribE102_ZNK12Commissioner3actERKSt3mapIi12SmartPointerI6PlayerESt4lessIiESaISt4pairIKiS3_EEEiR6Loggerib.Frame.actor+0x32b>
    8d22:	48 8b 85 68 ff ff ff 	mov    rax,QWORD PTR [rbp-0x98]
    8d29:	48 83 c0 50          	add    rax,0x50
    8d2d:	48 89 c7             	mov    rdi,rax
    8d30:	e8 1f 46 01 00       	call   1d354 <_ZNKSt6vectorIiSaIiEE5emptyEv>
    8d35:	83 f0 01             	xor    eax,0x1
    8d38:	84 c0                	test   al,al
    8d3a:	0f 84 6f 02 00 00    	je     8faf <_ZN12Commissioner3actEPZNKS_3actERKSt3mapIi12SmartPointerI6PlayerESt4lessIiESaISt4pairIKiS3_EEEiR6LoggeribE102_ZNK12Commissioner3actERKSt3mapIi12SmartPointerI6PlayerESt4lessIiESaISt4pairIKiS3_EEEiR6Loggerib.Frame.actor+0x70d>
    8d40:	48 8b 85 68 ff ff ff 	mov    rax,QWORD PTR [rbp-0x98]
    8d47:	48 83 c0 50          	add    rax,0x50
    8d4b:	48 89 c7             	mov    rdi,rax
    8d4e:	e8 94 44 01 00       	call   1d1e7 <_Z13choose_randomIiET_RKSt6vectorIS0_SaIS0_EE>
    8d53:	48 8b 95 68 ff ff ff 	mov    rdx,QWORD PTR [rbp-0x98]
    8d5a:	89 82 98 00 00 00    	mov    DWORD PTR [rdx+0x98],eax
    8d60:	48 8b 85 68 ff ff ff 	mov    rax,QWORD PTR [rbp-0x98]
    8d67:	48 8b 40 28          	mov    rax,QWORD PTR [rax+0x28]
    8d6b:	48 8b 95 68 ff ff ff 	mov    rdx,QWORD PTR [rbp-0x98]
    8d72:	48 81 c2 98 00 00 00 	add    rdx,0x98
    8d79:	48 89 d6             	mov    rsi,rdx
    8d7c:	48 89 c7             	mov    rdi,rax
    8d7f:	e8 46 4a 01 00       	call   1d7ca <_ZNKSt3mapIi12SmartPointerI6PlayerESt4lessIiESaISt4pairIKiS2_EEE2atERS6_>
    8d84:	48 89 c7             	mov    rdi,rax
    8d87:	e8 72 45 01 00       	call   1d2fe <_ZNK12SmartPointerI6PlayerEptEv>
    8d8c:	48 8b 10             	mov    rdx,QWORD PTR [rax]
    8d8f:	48 83 c2 20          	add    rdx,0x20
    8d93:	48 8b 12             	mov    rdx,QWORD PTR [rdx]
    8d96:	48 8b 8d 68 ff ff ff 	mov    rcx,QWORD PTR [rbp-0x98]
    8d9d:	48 81 c1 a8 00 00 00 	add    rcx,0xa8
    8da4:	48 89 c6             	mov    rsi,rax
    8da7:	48 89 cf             	mov    rdi,rcx
    8daa:	ff d2                	call   rdx
    8dac:	48 8b 85 68 ff ff ff 	mov    rax,QWORD PTR [rbp-0x98]
    8db3:	48 8d 90 a8 00 00 00 	lea    rdx,[rax+0xa8]
    8dba:	48 8b 85 68 ff ff ff 	mov    rax,QWORD PTR [rbp-0x98]
    8dc1:	48 89 90 a0 00 00 00 	mov    QWORD PTR [rax+0xa0],rdx
    8dc8:	48 8b 85 68 ff ff ff 	mov    rax,QWORD PTR [rbp-0x98]
    8dcf:	48 8b 80 a0 00 00 00 	mov    rax,QWORD PTR [rax+0xa0]
    8dd6:	48 8d 15 05 13 02 00 	lea    rdx,[rip+0x21305]        # 2a0e2 <_ZN9__gnu_cxxL21__default_lock_policyE+0xa2>
    8ddd:	48 89 d6             	mov    rsi,rdx
    8de0:	48 89 c7             	mov    rdi,rax
    8de3:	e8 2b 45 01 00       	call   1d313 <_ZSteqIcSt11char_traitsIcESaIcEEbRKNSt7__cxx1112basic_stringIT_T0_T1_EEPKS5_>
    8de8:	84 c0                	test   al,al
    8dea:	75 24                	jne    8e10 <_ZN12Commissioner3actEPZNKS_3actERKSt3mapIi12SmartPointerI6PlayerESt4lessIiESaISt4pairIKiS3_EEEiR6LoggeribE102_ZNK12Commissioner3actERKSt3mapIi12SmartPointerI6PlayerESt4lessIiESaISt4pairIKiS3_EEEiR6Loggerib.Frame.actor+0x56e>
    8dec:	48 8b 85 68 ff ff ff 	mov    rax,QWORD PTR [rbp-0x98]
    8df3:	48 8b 80 a0 00 00 00 	mov    rax,QWORD PTR [rax+0xa0]
    8dfa:	48 8d 15 ec 12 02 00 	lea    rdx,[rip+0x212ec]        # 2a0ed <_ZN9__gnu_cxxL21__default_lock_policyE+0xad>
    8e01:	48 89 d6             	mov    rsi,rdx
    8e04:	48 89 c7             	mov    rdi,rax
    8e07:	e8 07 45 01 00       	call   1d313 <_ZSteqIcSt11char_traitsIcESaIcEEbRKNSt7__cxx1112basic_stringIT_T0_T1_EEPKS5_>
    8e0c:	84 c0                	test   al,al
    8e0e:	74 07                	je     8e17 <_ZN12Commissioner3actEPZNKS_3actERKSt3mapIi12SmartPointerI6PlayerESt4lessIiESaISt4pairIKiS3_EEEiR6LoggeribE102_ZNK12Commissioner3actERKSt3mapIi12SmartPointerI6PlayerESt4lessIiESaISt4pairIKiS3_EEEiR6Loggerib.Frame.actor+0x575>
    8e10:	b8 01 00 00 00       	mov    eax,0x1
    8e15:	eb 05                	jmp    8e1c <_ZN12Commissioner3actEPZNKS_3actERKSt3mapIi12SmartPointerI6PlayerESt4lessIiESaISt4pairIKiS3_EEEiR6LoggeribE102_ZNK12Commissioner3actERKSt3mapIi12SmartPointerI6PlayerESt4lessIiESaISt4pairIKiS3_EEEiR6Loggerib.Frame.actor+0x57a>
    8e17:	b8 00 00 00 00       	mov    eax,0x0
    8e1c:	84 c0                	test   al,al
    8e1e:	0f 84 b6 00 00 00    	je     8eda <_ZN12Commissioner3actEPZNKS_3actERKSt3mapIi12SmartPointerI6PlayerESt4lessIiESaISt4pairIKiS3_EEEiR6LoggeribE102_ZNK12Commissioner3actERKSt3mapIi12SmartPointerI6PlayerESt4lessIiESaISt4pairIKiS3_EEEiR6Loggerib.Frame.actor+0x638>
    8e24:	48 8b 85 68 ff ff ff 	mov    rax,QWORD PTR [rbp-0x98]
    8e2b:	48 8b 40 20          	mov    rax,QWORD PTR [rax+0x20]
    8e2f:	48 8b 95 68 ff ff ff 	mov    rdx,QWORD PTR [rbp-0x98]
    8e36:	8b 92 98 00 00 00    	mov    edx,DWORD PTR [rdx+0x98]
    8e3c:	89 50 10             	mov    DWORD PTR [rax+0x10],edx
    8e3f:	48 8b 85 68 ff ff ff 	mov    rax,QWORD PTR [rbp-0x98]
    8e46:	48 8b 58 38          	mov    rbx,QWORD PTR [rax+0x38]
    8e4a:	48 8b 85 68 ff ff ff 	mov    rax,QWORD PTR [rbp-0x98]
    8e51:	8b 90 98 00 00 00    	mov    edx,DWORD PTR [rax+0x98]
    8e57:	48 8d 45 80          	lea    rax,[rbp-0x80]
    8e5b:	89 d6                	mov    esi,edx
    8e5d:	48 89 c7             	mov    rdi,rax
    8e60:	e8 5c f5 00 00       	call   183c1 <_ZNSt7__cxx119to_stringEi>
    8e65:	48 8d 45 a0          	lea    rax,[rbp-0x60]
    8e69:	48 8d 55 80          	lea    rdx,[rbp-0x80]
    8e6d:	48 8d 0d 54 13 02 00 	lea    rcx,[rip+0x21354]        # 2a1c8 <_ZN9__gnu_cxxL21__default_lock_policyE+0x188>
    8e74:	48 89 ce             	mov    rsi,rcx
    8e77:	48 89 c7             	mov    rdi,rax
    8e7a:	e8 54 2a 01 00       	call   1b8d3 <_ZStplIcSt11char_traitsIcESaIcEENSt7__cxx1112basic_stringIT_T0_T1_EEPKS5_OS8_>
    8e7f:	48 8d 45 c0          	lea    rax,[rbp-0x40]
    8e83:	48 8d 4d a0          	lea    rcx,[rbp-0x60]
    8e87:	48 8d 15 6a 13 02 00 	lea    rdx,[rip+0x2136a]        # 2a1f8 <_ZN9__gnu_cxxL21__default_lock_policyE+0x1b8>
    8e8e:	48 89 ce             	mov    rsi,rcx
    8e91:	48 89 c7             	mov    rdi,rax
    8e94:	e8 5c 3e 01 00       	call   1ccf5 <_ZStplIcSt11char_traitsIcESaIcEENSt7__cxx1112basic_stringIT_T0_T1_EEOS8_PKS5_>
    8e99:	48 8b 85 68 ff ff ff 	mov    rax,QWORD PTR [rbp-0x98]
    8ea0:	8b 40 40             	mov    eax,DWORD PTR [rax+0x40]
    8ea3:	48 8d 55 c0          	lea    rdx,[rbp-0x40]
    8ea7:	89 c6                	mov    esi,eax
    8ea9:	48 89 df             	mov    rdi,rbx
    8eac:	e8 3b 0b 01 00       	call   199ec <_ZN6Logger8logRoundEiRKNSt7__cxx1112basic_stringIcSt11char_traitsIcESaIcEEE>
    8eb1:	48 8d 45 c0          	lea    rax,[rbp-0x40]
    8eb5:	48 89 c7             	mov    rdi,rax
    8eb8:	e8 29 26 01 00       	call   1b4e6 <_ZNSt7__cxx1112basic_stringIcSt11char_traitsIcESaIcEED1Ev>
    8ebd:	48 8d 45 a0          	lea    rax,[rbp-0x60]
    8ec1:	48 89 c7             	mov    rdi,rax
    8ec4:	e8 1d 26 01 00       	call   1b4e6 <_ZNSt7__cxx1112basic_stringIcSt11char_traitsIcESaIcEED1Ev>
    8ec9:	48 8d 45 80          	lea    rax,[rbp-0x80]
    8ecd:	48 89 c7             	mov    rdi,rax
    8ed0:	e8 11 26 01 00       	call   1b4e6 <_ZNSt7__cxx1112basic_stringIcSt11char_traitsIcESaIcEED1Ev>
    8ed5:	e9 be 00 00 00       	jmp    8f98 <_ZN12Commissioner3actEPZNKS_3actERKSt3mapIi12SmartPointerI6PlayerESt4lessIiESaISt4pairIKiS3_EEEiR6LoggeribE102_ZNK12Commissioner3actERKSt3mapIi12SmartPointerI6PlayerESt4lessIiESaISt4pairIKiS3_EEEiR6Loggerib.Frame.actor+0x6f6>
    8eda:	48 8b 85 68 ff ff ff 	mov    rax,QWORD PTR [rbp-0x98]
    8ee1:	48 8b 40 20          	mov    rax,QWORD PTR [rax+0x20]
    8ee5:	48 83 c0 20          	add    rax,0x20
    8ee9:	48 8b 95 68 ff ff ff 	mov    rdx,QWORD PTR [rbp-0x98]
    8ef0:	48 81 c2 98 00 00 00 	add    rdx,0x98
    8ef7:	48 89 d6             	mov    rsi,rdx
    8efa:	48 89 c7             	mov    rdi,rax
    8efd:	e8 a0 49 01 00       	call   1d8a2 <_ZNSt3setIiSt4lessIiESaIiEE6insertERKi>
    8f02:	48 8b 85 68 ff ff ff 	mov    rax,QWORD PTR [rbp-0x98]
    8f09:	48 8b 58 38          	mov    rbx,QWORD PTR [rax+0x38]
    8f0d:	48 8b 85 68 ff ff ff 	mov    rax,QWORD PTR [rbp-0x98]
    8f14:	8b 90 98 00 00 00    	mov    edx,DWORD PTR [rax+0x98]
    8f1a:	48 8d 45 80          	lea    rax,[rbp-0x80]
    8f1e:	89 d6                	mov    esi,edx
    8f20:	48 89 c7             	mov    rdi,rax
    8f23:	e8 99 f4 00 00       	call   183c1 <_ZNSt7__cxx119to_stringEi>
    8f28:	48 8d 45 a0          	lea    rax,[rbp-0x60]
    8f2c:	48 8d 55 80          	lea    rdx,[rbp-0x80]
    8f30:	48 8d 0d 91 12 02 00 	lea    rcx,[rip+0x21291]        # 2a1c8 <_ZN9__gnu_cxxL21__default_lock_policyE+0x188>
    8f37:	48 89 ce             	mov    rsi,rcx
    8f3a:	48 89 c7             	mov    rdi,rax
    8f3d:	e8 91 29 01 00       	call   1b8d3 <_ZStplIcSt11char_traitsIcESaIcEENSt7__cxx1112basic_stringIT_T0_T1_EEPKS5_OS8_>
    8f42:	48 8d 45 c0          	lea    rax,[rbp-0x40]
    8f46:	48 8d 4d a0          	lea    rcx,[rbp-0x60]
    8f4a:	48 8d 15 d7 12 02 00 	lea    rdx,[rip+0x212d7]        # 2a228 <_ZN9__gnu_cxxL21__default_lock_policyE+0x1e8>
    8f51:	48 89 ce             	mov    rsi,rcx
    8f54:	48 89 c7             	mov    rdi,rax
    8f57:	e8 99 3d 01 00       	call   1ccf5 <_ZStplIcSt11char_traitsIcESaIcEENSt7__cxx1112basic_stringIT_T0_T1_EEOS8_PKS5_>
    8f5c:	48 8b 85 68 ff ff ff 	mov    rax,QWORD PTR [rbp-0x98]
    8f63:	8b 40 40             	mov    eax,DWORD PTR [rax+0x40]
    8f66:	48 8d 55 c0          	lea    rdx,[rbp-0x40]
    8f6a:	89 c6                	mov    esi,eax
    8f6c:	48 89 df             	mov    rdi,rbx
    8f6f:	e8 78 0a 01 00       	call   199ec <_ZN6Logger8logRoundEiRKNSt7__cxx1112basic_stringIcSt11char_traitsIcESaIcEEE>
    8f74:	48 8d 45 c0          	lea    rax,[rbp-0x40]
    8f78:	48 89 c7             	mov    rdi,rax
    8f7b:	e8 66 25 01 00       	call   1b4e6 <_ZNSt7__cxx1112basic_stringIcSt11char_traitsIcESaIcEED1Ev>
    8f80:	48 8d 45 a0          	lea    rax,[rbp-0x60]
    8f84:	48 89 c7             	mov    rdi,rax
    8f87:	e8 5a 25 01 00       	call   1b4e6 <_ZNSt7__cxx1112basic_stringIcSt11char_traitsIcESaIcEED1Ev>
    8f8c:	48 8d 45 80          	lea    rax,[rbp-0x80]
    8f90:	48 89 c7             	mov    rdi,rax
    8f93:	e8 4e 25 01 00       	call   1b4e6 <_ZNSt7__cxx1112basic_stringIcSt11char_traitsIcESaIcEED1Ev>
    8f98:	48 8b 85 68 ff ff ff 	mov    rax,QWORD PTR [rbp-0x98]
    8f9f:	48 05 a8 00 00 00    	add    rax,0xa8
    8fa5:	48 89 c7             	mov    rdi,rax
    8fa8:	e8 39 25 01 00       	call   1b4e6 <_ZNSt7__cxx1112basic_stringIcSt11char_traitsIcESaIcEED1Ev>
    8fad:	eb 6a                	jmp    9019 <_ZN12Commissioner3actEPZNKS_3actERKSt3mapIi12SmartPointerI6PlayerESt4lessIiESaISt4pairIKiS3_EEEiR6LoggeribE102_ZNK12Commissioner3actERKSt3mapIi12SmartPointerI6PlayerESt4lessIiESaISt4pairIKiS3_EEEiR6Loggerib.Frame.actor+0x777>
    8faf:	48 8b 85 68 ff ff ff 	mov    rax,QWORD PTR [rbp-0x98]
    8fb6:	48 8b 58 38          	mov    rbx,QWORD PTR [rax+0x38]
    8fba:	48 8d 85 78 ff ff ff 	lea    rax,[rbp-0x88]
    8fc1:	48 89 c7             	mov    rdi,rax
    8fc4:	e8 e7 d9 ff ff       	call   69b0 <_ZNSaIcEC1Ev@plt>
    8fc9:	48 8d 95 78 ff ff ff 	lea    rdx,[rbp-0x88]
    8fd0:	48 8d 45 c0          	lea    rax,[rbp-0x40]
    8fd4:	48 8d 0d 65 12 02 00 	lea    rcx,[rip+0x21265]        # 2a240 <_ZN9__gnu_cxxL21__default_lock_policyE+0x200>
    8fdb:	48 89 ce             	mov    rsi,rcx
    8fde:	48 89 c7             	mov    rdi,rax
    8fe1:	e8 3a 29 01 00       	call   1b920 <_ZNSt7__cxx1112basic_stringIcSt11char_traitsIcESaIcEEC1IS3_EEPKcRKS3_>
    8fe6:	48 8b 85 68 ff ff ff 	mov    rax,QWORD PTR [rbp-0x98]
    8fed:	8b 40 40             	mov    eax,DWORD PTR [rax+0x40]
    8ff0:	48 8d 55 c0          	lea    rdx,[rbp-0x40]
    8ff4:	89 c6                	mov    esi,eax
    8ff6:	48 89 df             	mov    rdi,rbx
    8ff9:	e8 ee 09 01 00       	call   199ec <_ZN6Logger8logRoundEiRKNSt7__cxx1112basic_stringIcSt11char_traitsIcESaIcEEE>
    8ffe:	48 8d 45 c0          	lea    rax,[rbp-0x40]
    9002:	48 89 c7             	mov    rdi,rax
    9005:	e8 dc 24 01 00       	call   1b4e6 <_ZNSt7__cxx1112basic_stringIcSt11char_traitsIcESaIcEED1Ev>
    900a:	48 8d 85 78 ff ff ff 	lea    rax,[rbp-0x88]
    9011:	48 89 c7             	mov    rdi,rax
    9014:	e8 f7 d7 ff ff       	call   6810 <_ZNSaIcED1Ev@plt>
    9019:	48 8b 85 68 ff ff ff 	mov    rax,QWORD PTR [rbp-0x98]
    9020:	48 83 c0 50          	add    rax,0x50
    9024:	48 89 c7             	mov    rdi,rax
    9027:	e8 1c 40 01 00       	call   1d048 <_ZNSt6vectorIiSaIiEED1Ev>
    902c:	48 8b 85 68 ff ff ff 	mov    rax,QWORD PTR [rbp-0x98]
    9033:	48 83 c0 10          	add    rax,0x10
    9037:	48 89 c7             	mov    rdi,rax
    903a:	e8 a7 0d 01 00       	call   19de6 <_ZN12PlayerAction12promise_type11return_voidEv>
    903f:	90                   	nop
    9040:	48 8b 85 68 ff ff ff 	mov    rax,QWORD PTR [rbp-0x98]
    9047:	48 c7 00 00 00 00 00 	mov    QWORD PTR [rax],0x0
    904e:	48 8b 85 68 ff ff ff 	mov    rax,QWORD PTR [rbp-0x98]
    9055:	48 83 c0 10          	add    rax,0x10
    9059:	48 89 c7             	mov    rdi,rax
    905c:	e8 75 0d 01 00       	call   19dd6 <_ZN12PlayerAction12promise_type13final_suspendEv>
    9061:	48 8b 85 68 ff ff ff 	mov    rax,QWORD PTR [rbp-0x98]
    9068:	48 05 c8 00 00 00    	add    rax,0xc8
    906e:	48 89 c7             	mov    rdi,rax
    9071:	e8 c4 04 01 00       	call   1953a <_ZNKSt7__n486114suspend_always11await_readyEv>
    9076:	83 f0 01             	xor    eax,0x1
    9079:	84 c0                	test   al,al
    907b:	74 3d                	je     90ba <_ZN12Commissioner3actEPZNKS_3actERKSt3mapIi12SmartPointerI6PlayerESt4lessIiESaISt4pairIKiS3_EEEiR6LoggeribE102_ZNK12Commissioner3actERKSt3mapIi12SmartPointerI6PlayerESt4lessIiESaISt4pairIKiS3_EEEiR6Loggerib.Frame.actor+0x818>
    907d:	48 8b 85 68 ff ff ff 	mov    rax,QWORD PTR [rbp-0x98]
    9084:	66 c7 40 46 04 00    	mov    WORD PTR [rax+0x46],0x4
    908a:	48 8b 85 68 ff ff ff 	mov    rax,QWORD PTR [rbp-0x98]
    9091:	48 8d 98 c8 00 00 00 	lea    rbx,[rax+0xc8]
    9098:	48 8b 85 68 ff ff ff 	mov    rax,QWORD PTR [rbp-0x98]
    909f:	48 83 c0 18          	add    rax,0x18
    90a3:	48 89 c7             	mov    rdi,rax
    90a6:	e8 9f 3e 01 00       	call   1cf4a <_ZNKSt7__n486116coroutine_handleIN12PlayerAction12promise_typeEEcvNS0_IvEEEv>
    90ab:	48 89 c6             	mov    rsi,rax
    90ae:	48 89 df             	mov    rdi,rbx
    90b1:	e8 98 04 01 00       	call   1954e <_ZNKSt7__n486114suspend_always13await_suspendENS_16coroutine_handleIvEE>
    90b6:	eb 44                	jmp    90fc <_ZN12Commissioner3actEPZNKS_3actERKSt3mapIi12SmartPointerI6PlayerESt4lessIiESaISt4pairIKiS3_EEEiR6LoggeribE102_ZNK12Commissioner3actERKSt3mapIi12SmartPointerI6PlayerESt4lessIiESaISt4pairIKiS3_EEEiR6Loggerib.Frame.actor+0x85a>
    90b8:	eb 18                	jmp    90d2 <_ZN12Commissioner3actEPZNKS_3actERKSt3mapIi12SmartPointerI6PlayerESt4lessIiESaISt4pairIKiS3_EEEiR6LoggeribE102_ZNK12Commissioner3actERKSt3mapIi12SmartPointerI6PlayerESt4lessIiESaISt4pairIKiS3_EEEiR6Loggerib.Frame.actor+0x830>
    90ba:	48 8b 85 68 ff ff ff 	mov    rax,QWORD PTR [rbp-0x98]
    90c1:	48 05 c8 00 00 00    	add    rax,0xc8
    90c7:	48 89 c7             	mov    rdi,rax
    90ca:	e8 93 04 01 00       	call   19562 <_ZNKSt7__n486114suspend_always12await_resumeEv>
    90cf:	eb 01                	jmp    90d2 <_ZN12Commissioner3actEPZNKS_3actERKSt3mapIi12SmartPointerI6PlayerESt4lessIiESaISt4pairIKiS3_EEEiR6LoggeribE102_ZNK12Commissioner3actERKSt3mapIi12SmartPointerI6PlayerESt4lessIiESaISt4pairIKiS3_EEEiR6Loggerib.Frame.actor+0x830>
    90d1:	90                   	nop
    90d2:	48 8b 85 68 ff ff ff 	mov    rax,QWORD PTR [rbp-0x98]
    90d9:	0f b6 40 48          	movzx  eax,BYTE PTR [rax+0x48]
    90dd:	0f b6 c0             	movzx  eax,al
    90e0:	85 c0                	test   eax,eax
    90e2:	0f 84 bc 01 00 00    	je     92a4 <_ZN12Commissioner3actEPZNKS_3actERKSt3mapIi12SmartPointerI6PlayerESt4lessIiESaISt4pairIKiS3_EEEiR6LoggeribE102_ZNK12Commissioner3actERKSt3mapIi12SmartPointerI6PlayerESt4lessIiESaISt4pairIKiS3_EEEiR6Loggerib.Frame.actor+0xa02>
    90e8:	48 8b 85 68 ff ff ff 	mov    rax,QWORD PTR [rbp-0x98]
    90ef:	48 89 c7             	mov    rdi,rax
    90f2:	e8 a9 d6 ff ff       	call   67a0 <_ZdlPv@plt>
    90f7:	e9 a8 01 00 00       	jmp    92a4 <_ZN12Commissioner3actEPZNKS_3actERKSt3mapIi12SmartPointerI6PlayerESt4lessIiESaISt4pairIKiS3_EEEiR6LoggeribE102_ZNK12Commissioner3actERKSt3mapIi12SmartPointerI6PlayerESt4lessIiESaISt4pairIKiS3_EEEiR6Loggerib.Frame.actor+0xa02>
    90fc:	f3 0f 1e fa          	endbr64 
    9100:	e9 9f 01 00 00       	jmp    92a4 <_ZN12Commissioner3actEPZNKS_3actERKSt3mapIi12SmartPointerI6PlayerESt4lessIiESaISt4pairIKiS3_EEEiR6LoggeribE102_ZNK12Commissioner3actERKSt3mapIi12SmartPointerI6PlayerESt4lessIiESaISt4pairIKiS3_EEEiR6Loggerib.Frame.actor+0xa02>
    9105:	f3 0f 1e fa          	endbr64 
    9109:	48 89 c3             	mov    rbx,rax
    910c:	48 8d 45 c0          	lea    rax,[rbp-0x40]
    9110:	48 89 c7             	mov    rdi,rax
    9113:	e8 ce 23 01 00       	call   1b4e6 <_ZNSt7__cxx1112basic_stringIcSt11char_traitsIcESaIcEED1Ev>
    9118:	eb 07                	jmp    9121 <_ZN12Commissioner3actEPZNKS_3actERKSt3mapIi12SmartPointerI6PlayerESt4lessIiESaISt4pairIKiS3_EEEiR6LoggeribE102_ZNK12Commissioner3actERKSt3mapIi12SmartPointerI6PlayerESt4lessIiESaISt4pairIKiS3_EEEiR6Loggerib.Frame.actor+0x87f>
    911a:	f3 0f 1e fa          	endbr64 
    911e:	48 89 c3             	mov    rbx,rax
    9121:	48 8d 45 a0          	lea    rax,[rbp-0x60]
    9125:	48 89 c7             	mov    rdi,rax
    9128:	e8 b9 23 01 00       	call   1b4e6 <_ZNSt7__cxx1112basic_stringIcSt11char_traitsIcESaIcEED1Ev>
    912d:	eb 07                	jmp    9136 <_ZN12Commissioner3actEPZNKS_3actERKSt3mapIi12SmartPointerI6PlayerESt4lessIiESaISt4pairIKiS3_EEEiR6LoggeribE102_ZNK12Commissioner3actERKSt3mapIi12SmartPointerI6PlayerESt4lessIiESaISt4pairIKiS3_EEEiR6Loggerib.Frame.actor+0x894>
    912f:	f3 0f 1e fa          	endbr64 
    9133:	48 89 c3             	mov    rbx,rax
    9136:	48 8d 45 80          	lea    rax,[rbp-0x80]
    913a:	48 89 c7             	mov    rdi,rax
    913d:	e8 a4 23 01 00       	call   1b4e6 <_ZNSt7__cxx1112basic_stringIcSt11char_traitsIcESaIcEED1Ev>
    9142:	48 89 d8             	mov    rax,rbx
    9145:	e9 ec 00 00 00       	jmp    9236 <_ZN12Commissioner3actEPZNKS_3actERKSt3mapIi12SmartPointerI6PlayerESt4lessIiESaISt4pairIKiS3_EEEiR6LoggeribE102_ZNK12Commissioner3actERKSt3mapIi12SmartPointerI6PlayerESt4lessIiESaISt4pairIKiS3_EEEiR6Loggerib.Frame.actor+0x994>
    914a:	f3 0f 1e fa          	endbr64 
    914e:	48 89 c3             	mov    rbx,rax
    9151:	48 8d 45 c0          	lea    rax,[rbp-0x40]
    9155:	48 89 c7             	mov    rdi,rax
    9158:	e8 89 23 01 00       	call   1b4e6 <_ZNSt7__cxx1112basic_stringIcSt11char_traitsIcESaIcEED1Ev>
    915d:	eb 07                	jmp    9166 <_ZN12Commissioner3actEPZNKS_3actERKSt3mapIi12SmartPointerI6PlayerESt4lessIiESaISt4pairIKiS3_EEEiR6LoggeribE102_ZNK12Commissioner3actERKSt3mapIi12SmartPointerI6PlayerESt4lessIiESaISt4pairIKiS3_EEEiR6Loggerib.Frame.actor+0x8c4>
    915f:	f3 0f 1e fa          	endbr64 
    9163:	48 89 c3             	mov    rbx,rax
    9166:	48 8d 45 a0          	lea    rax,[rbp-0x60]
    916a:	48 89 c7             	mov    rdi,rax
    916d:	e8 74 23 01 00       	call   1b4e6 <_ZNSt7__cxx1112basic_stringIcSt11char_traitsIcESaIcEED1Ev>
    9172:	eb 07                	jmp    917b <_ZN12Commissioner3actEPZNKS_3actERKSt3mapIi12SmartPointerI6PlayerESt4lessIiESaISt4pairIKiS3_EEEiR6LoggeribE102_ZNK12Commissioner3actERKSt3mapIi12SmartPointerI6PlayerESt4lessIiESaISt4pairIKiS3_EEEiR6Loggerib.Frame.actor+0x8d9>
    9174:	f3 0f 1e fa          	endbr64 
    9178:	48 89 c3             	mov    rbx,rax
    917b:	48 8d 45 80          	lea    rax,[rbp-0x80]
    917f:	48 89 c7             	mov    rdi,rax
    9182:	e8 5f 23 01 00       	call   1b4e6 <_ZNSt7__cxx1112basic_stringIcSt11char_traitsIcESaIcEED1Ev>
    9187:	eb 46                	jmp    91cf <_ZN12Commissioner3actEPZNKS_3actERKSt3mapIi12SmartPointerI6PlayerESt4lessIiESaISt4pairIKiS3_EEEiR6LoggeribE102_ZNK12Commissioner3actERKSt3mapIi12SmartPointerI6PlayerESt4lessIiESaISt4pairIKiS3_EEEiR6Loggerib.Frame.actor+0x92d>
    9189:	f3 0f 1e fa          	endbr64 
    918d:	48 89 c3             	mov    rbx,rax
    9190:	48 8d 45 c0          	lea    rax,[rbp-0x40]
    9194:	48 89 c7             	mov    rdi,rax
    9197:	e8 4a 23 01 00       	call   1b4e6 <_ZNSt7__cxx1112basic_stringIcSt11char_traitsIcESaIcEED1Ev>
    919c:	eb 07                	jmp    91a5 <_ZN12Commissioner3actEPZNKS_3actERKSt3mapIi12SmartPointerI6PlayerESt4lessIiESaISt4pairIKiS3_EEEiR6LoggeribE102_ZNK12Commissioner3actERKSt3mapIi12SmartPointerI6PlayerESt4lessIiESaISt4pairIKiS3_EEEiR6Loggerib.Frame.actor+0x903>
    919e:	f3 0f 1e fa          	endbr64 
    91a2:	48 89 c3             	mov    rbx,rax
    91a5:	48 8d 45 a0          	lea    rax,[rbp-0x60]
    91a9:	48 89 c7             	mov    rdi,rax
    91ac:	e8 35 23 01 00       	call   1b4e6 <_ZNSt7__cxx1112basic_stringIcSt11char_traitsIcESaIcEED1Ev>
    91b1:	eb 07                	jmp    91ba <_ZN12Commissioner3actEPZNKS_3actERKSt3mapIi12SmartPointerI6PlayerESt4lessIiESaISt4pairIKiS3_EEEiR6LoggeribE102_ZNK12Commissioner3actERKSt3mapIi12SmartPointerI6PlayerESt4lessIiESaISt4pairIKiS3_EEEiR6Loggerib.Frame.actor+0x918>
    91b3:	f3 0f 1e fa          	endbr64 
    91b7:	48 89 c3             	mov    rbx,rax
    91ba:	48 8d 45 80          	lea    rax,[rbp-0x80]
    91be:	48 89 c7             	mov    rdi,rax
    91c1:	e8 20 23 01 00       	call   1b4e6 <_ZNSt7__cxx1112basic_stringIcSt11char_traitsIcESaIcEED1Ev>
    91c6:	eb 07                	jmp    91cf <_ZN12Commissioner3actEPZNKS_3actERKSt3mapIi12SmartPointerI6PlayerESt4lessIiESaISt4pairIKiS3_EEEiR6LoggeribE102_ZNK12Commissioner3actERKSt3mapIi12SmartPointerI6PlayerESt4lessIiESaISt4pairIKiS3_EEEiR6Loggerib.Frame.actor+0x92d>
    91c8:	f3 0f 1e fa          	endbr64 
    91cc:	48 89 c3             	mov    rbx,rax
    91cf:	48 8b 85 68 ff ff ff 	mov    rax,QWORD PTR [rbp-0x98]
    91d6:	48 05 a8 00 00 00    	add    rax,0xa8
    91dc:	48 89 c7             	mov    rdi,rax
    91df:	e8 02 23 01 00       	call   1b4e6 <_ZNSt7__cxx1112basic_stringIcSt11char_traitsIcESaIcEED1Ev>
    91e4:	eb 34                	jmp    921a <_ZN12Commissioner3actEPZNKS_3actERKSt3mapIi12SmartPointerI6PlayerESt4lessIiESaISt4pairIKiS3_EEEiR6LoggeribE102_ZNK12Commissioner3actERKSt3mapIi12SmartPointerI6PlayerESt4lessIiESaISt4pairIKiS3_EEEiR6Loggerib.Frame.actor+0x978>
    91e6:	f3 0f 1e fa          	endbr64 
    91ea:	48 89 c3             	mov    rbx,rax
    91ed:	48 8d 45 c0          	lea    rax,[rbp-0x40]
    91f1:	48 89 c7             	mov    rdi,rax
    91f4:	e8 ed 22 01 00       	call   1b4e6 <_ZNSt7__cxx1112basic_stringIcSt11char_traitsIcESaIcEED1Ev>
    91f9:	eb 07                	jmp    9202 <_ZN12Commissioner3actEPZNKS_3actERKSt3mapIi12SmartPointerI6PlayerESt4lessIiESaISt4pairIKiS3_EEEiR6LoggeribE102_ZNK12Commissioner3actERKSt3mapIi12SmartPointerI6PlayerESt4lessIiESaISt4pairIKiS3_EEEiR6Loggerib.Frame.actor+0x960>
    91fb:	f3 0f 1e fa          	endbr64 
    91ff:	48 89 c3             	mov    rbx,rax
    9202:	48 8d 85 78 ff ff ff 	lea    rax,[rbp-0x88]
    9209:	48 89 c7             	mov    rdi,rax
    920c:	e8 ff d5 ff ff       	call   6810 <_ZNSaIcED1Ev@plt>
    9211:	eb 07                	jmp    921a <_ZN12Commissioner3actEPZNKS_3actERKSt3mapIi12SmartPointerI6PlayerESt4lessIiESaISt4pairIKiS3_EEEiR6LoggeribE102_ZNK12Commissioner3actERKSt3mapIi12SmartPointerI6PlayerESt4lessIiESaISt4pairIKiS3_EEEiR6Loggerib.Frame.actor+0x978>
    9213:	f3 0f 1e fa          	endbr64 
    9217:	48 89 c3             	mov    rbx,rax
    921a:	48 8b 85 68 ff ff ff 	mov    rax,QWORD PTR [rbp-0x98]
    9221:	48 83 c0 50          	add    rax,0x50
    9225:	48 89 c7             	mov    rdi,rax
    9228:	e8 1b 3e 01 00       	call   1d048 <_ZNSt6vectorIiSaIiEED1Ev>
    922d:	48 89 d8             	mov    rax,rbx
    9230:	eb 04                	jmp    9236 <_ZN12Commissioner3actEPZNKS_3actERKSt3mapIi12SmartPointerI6PlayerESt4lessIiESaISt4pairIKiS3_EEEiR6LoggeribE102_ZNK12Commissioner3actERKSt3mapIi12SmartPointerI6PlayerESt4lessIiESaISt4pairIKiS3_EEEiR6Loggerib.Frame.actor+0x994>
    9232:	f3 0f 1e fa          	endbr64 
    9236:	48 89 c7             	mov    rdi,rax
    9239:	e8 92 d3 ff ff       	call   65d0 <__cxa_begin_catch@plt>
    923e:	48 8b 85 68 ff ff ff 	mov    rax,QWORD PTR [rbp-0x98]
    9245:	0f b6 40 49          	movzx  eax,BYTE PTR [rax+0x49]
    9249:	83 f0 01             	xor    eax,0x1
    924c:	84 c0                	test   al,al
    924e:	74 05                	je     9255 <_ZN12Commissioner3actEPZNKS_3actERKSt3mapIi12SmartPointerI6PlayerESt4lessIiESaISt4pairIKiS3_EEEiR6LoggeribE102_ZNK12Commissioner3actERKSt3mapIi12SmartPointerI6PlayerESt4lessIiESaISt4pairIKiS3_EEEiR6Loggerib.Frame.actor+0x9b3>
    9250:	e8 9b d6 ff ff       	call   68f0 <__cxa_rethrow@plt>
    9255:	48 8b 85 68 ff ff ff 	mov    rax,QWORD PTR [rbp-0x98]
    925c:	48 c7 00 00 00 00 00 	mov    QWORD PTR [rax],0x0
    9263:	48 8b 85 68 ff ff ff 	mov    rax,QWORD PTR [rbp-0x98]
    926a:	66 c7 40 46 00 00    	mov    WORD PTR [rax+0x46],0x0
    9270:	48 8b 85 68 ff ff ff 	mov    rax,QWORD PTR [rbp-0x98]
    9277:	48 83 c0 10          	add    rax,0x10
    927b:	48 89 c7             	mov    rdi,rax
    927e:	e8 73 0b 01 00       	call   19df6 <_ZN12PlayerAction12promise_type19unhandled_exceptionEv>
    9283:	e8 c8 d6 ff ff       	call   6950 <__cxa_end_catch@plt>
    9288:	e9 b3 fd ff ff       	jmp    9040 <_ZN12Commissioner3actEPZNKS_3actERKSt3mapIi12SmartPointerI6PlayerESt4lessIiESaISt4pairIKiS3_EEEiR6LoggeribE102_ZNK12Commissioner3actERKSt3mapIi12SmartPointerI6PlayerESt4lessIiESaISt4pairIKiS3_EEEiR6Loggerib.Frame.actor+0x79e>
    928d:	f3 0f 1e fa          	endbr64 
    9291:	48 89 c3             	mov    rbx,rax
    9294:	e8 b7 d6 ff ff       	call   6950 <__cxa_end_catch@plt>
    9299:	48 89 d8             	mov    rax,rbx
    929c:	48 89 c7             	mov    rdi,rax
    929f:	e8 fc d6 ff ff       	call   69a0 <_Unwind_Resume@plt>
    92a4:	90                   	nop
    92a5:	48 8b 45 e8          	mov    rax,QWORD PTR [rbp-0x18]
    92a9:	64 48 2b 04 25 28 00 	sub    rax,QWORD PTR fs:0x28
    92b0:	00 00 
    92b2:	74 05                	je     92b9 <_ZN12Commissioner3actEPZNKS_3actERKSt3mapIi12SmartPointerI6PlayerESt4lessIiESaISt4pairIKiS3_EEEiR6LoggeribE102_ZNK12Commissioner3actERKSt3mapIi12SmartPointerI6PlayerESt4lessIiESaISt4pairIKiS3_EEEiR6Loggerib.Frame.actor+0xa17>
    92b4:	e8 87 d5 ff ff       	call   6840 <__stack_chk_fail@plt>
    92b9:	48 8b 5d f8          	mov    rbx,QWORD PTR [rbp-0x8]
    92bd:	c9                   	leave  
    92be:	c3                   	ret    
    92bf:	90                   	nop

00000000000092c0 <_ZN12Commissioner3actEPZNKS_3actERKSt3mapIi12SmartPointerI6PlayerESt4lessIiESaISt4pairIKiS3_EEEiR6LoggeribE102_ZNK12Commissioner3actERKSt3mapIi12SmartPointerI6PlayerESt4lessIiESaISt4pairIKiS3_EEEiR6Loggerib.Frame.destroy>:
    92c0:	f3 0f 1e fa          	endbr64 
    92c4:	55                   	push   rbp
    92c5:	48 89 e5             	mov    rbp,rsp
    92c8:	48 83 ec 10          	sub    rsp,0x10
    92cc:	48 89 7d f8          	mov    QWORD PTR [rbp-0x8],rdi
    92d0:	48 8b 45 f8          	mov    rax,QWORD PTR [rbp-0x8]
    92d4:	0f b7 40 46          	movzx  eax,WORD PTR [rax+0x46]
    92d8:	83 c8 01             	or     eax,0x1
    92db:	89 c2                	mov    edx,eax
    92dd:	48 8b 45 f8          	mov    rax,QWORD PTR [rbp-0x8]
    92e1:	66 89 50 46          	mov    WORD PTR [rax+0x46],dx
    92e5:	48 8b 45 f8          	mov    rax,QWORD PTR [rbp-0x8]
    92e9:	48 89 c7             	mov    rdi,rax
    92ec:	e8 b1 f5 ff ff       	call   88a2 <_ZN12Commissioner3actEPZNKS_3actERKSt3mapIi12SmartPointerI6PlayerESt4lessIiESaISt4pairIKiS3_EEEiR6LoggeribE102_ZNK12Commissioner3actERKSt3mapIi12SmartPointerI6PlayerESt4lessIiESaISt4pairIKiS3_EEEiR6Loggerib.Frame.actor>
    92f1:	c9                   	leave  
    92f2:	c3                   	ret    
    92f3:	90                   	nop

00000000000092f4 <_ZN12Commissioner4voteEPZNKS_4voteERKSt3mapIi12SmartPointerI6PlayerESt4lessIiESaISt4pairIKiS3_EEEiR6LoggeriE102_ZNK12Commissioner4voteERKSt3mapIi12SmartPointerI6PlayerESt4lessIiESaISt4pairIKiS3_EEEiR6Loggeri.Frame.actor>:
    92f4:	f3 0f 1e fa          	endbr64 
    92f8:	55                   	push   rbp
    92f9:	48 89 e5             	mov    rbp,rsp
    92fc:	53                   	push   rbx
    92fd:	48 81 ec f8 00 00 00 	sub    rsp,0xf8
    9304:	48 89 bd 08 ff ff ff 	mov    QWORD PTR [rbp-0xf8],rdi
    930b:	64 48 8b 04 25 28 00 	mov    rax,QWORD PTR fs:0x28
    9312:	00 00 
    9314:	48 89 45 e8          	mov    QWORD PTR [rbp-0x18],rax
    9318:	31 c0                	xor    eax,eax
    931a:	48 8b 85 08 ff ff ff 	mov    rax,QWORD PTR [rbp-0xf8]
    9321:	0f b7 40 44          	movzx  eax,WORD PTR [rax+0x44]
    9325:	83 e0 01             	and    eax,0x1
    9328:	66 85 c0             	test   ax,ax
    932b:	74 30                	je     935d <_ZN12Commissioner4voteEPZNKS_4voteERKSt3mapIi12SmartPointerI6PlayerESt4lessIiESaISt4pairIKiS3_EEEiR6LoggeriE102_ZNK12Commissioner4voteERKSt3mapIi12SmartPointerI6PlayerESt4lessIiESaISt4pairIKiS3_EEEiR6Loggeri.Frame.actor+0x69>
    932d:	48 8b 85 08 ff ff ff 	mov    rax,QWORD PTR [rbp-0xf8]
    9334:	0f b7 40 44          	movzx  eax,WORD PTR [rax+0x44]
    9338:	0f b7 c0             	movzx  eax,ax
    933b:	83 f8 05             	cmp    eax,0x5
    933e:	0f 84 02 04 00 00    	je     9746 <_ZN12Commissioner4voteEPZNKS_4voteERKSt3mapIi12SmartPointerI6PlayerESt4lessIiESaISt4pairIKiS3_EEEiR6LoggeriE102_ZNK12Commissioner4voteERKSt3mapIi12SmartPointerI6PlayerESt4lessIiESaISt4pairIKiS3_EEEiR6Loggeri.Frame.actor+0x452>
    9344:	83 f8 05             	cmp    eax,0x5
    9347:	7f 12                	jg     935b <_ZN12Commissioner4voteEPZNKS_4voteERKSt3mapIi12SmartPointerI6PlayerESt4lessIiESaISt4pairIKiS3_EEEiR6LoggeriE102_ZNK12Commissioner4voteERKSt3mapIi12SmartPointerI6PlayerESt4lessIiESaISt4pairIKiS3_EEEiR6Loggeri.Frame.actor+0x67>
    9349:	83 f8 01             	cmp    eax,0x1
    934c:	0f 84 0b 04 00 00    	je     975d <_ZN12Commissioner4voteEPZNKS_4voteERKSt3mapIi12SmartPointerI6PlayerESt4lessIiESaISt4pairIKiS3_EEEiR6LoggeriE102_ZNK12Commissioner4voteERKSt3mapIi12SmartPointerI6PlayerESt4lessIiESaISt4pairIKiS3_EEEiR6Loggeri.Frame.actor+0x469>
    9352:	83 f8 03             	cmp    eax,0x3
    9355:	0f 84 be 00 00 00    	je     9419 <_ZN12Commissioner4voteEPZNKS_4voteERKSt3mapIi12SmartPointerI6PlayerESt4lessIiESaISt4pairIKiS3_EEEiR6LoggeriE102_ZNK12Commissioner4voteERKSt3mapIi12SmartPointerI6PlayerESt4lessIiESaISt4pairIKiS3_EEEiR6Loggeri.Frame.actor+0x125>
    935b:	0f 0b                	ud2    
    935d:	48 8b 85 08 ff ff ff 	mov    rax,QWORD PTR [rbp-0xf8]
    9364:	0f b7 40 44          	movzx  eax,WORD PTR [rax+0x44]
    9368:	0f b7 c0             	movzx  eax,ax
    936b:	83 f8 04             	cmp    eax,0x4
    936e:	0f 84 d4 03 00 00    	je     9748 <_ZN12Commissioner4voteEPZNKS_4voteERKSt3mapIi12SmartPointerI6PlayerESt4lessIiESaISt4pairIKiS3_EEEiR6LoggeriE102_ZNK12Commissioner4voteERKSt3mapIi12SmartPointerI6PlayerESt4lessIiESaISt4pairIKiS3_EEEiR6Loggeri.Frame.actor+0x454>
    9374:	83 f8 04             	cmp    eax,0x4
    9377:	7f 63                	jg     93dc <_ZN12Commissioner4voteEPZNKS_4voteERKSt3mapIi12SmartPointerI6PlayerESt4lessIiESaISt4pairIKiS3_EEEiR6LoggeriE102_ZNK12Commissioner4voteERKSt3mapIi12SmartPointerI6PlayerESt4lessIiESaISt4pairIKiS3_EEEiR6Loggeri.Frame.actor+0xe8>
    9379:	85 c0                	test   eax,eax
    937b:	74 0b                	je     9388 <_ZN12Commissioner4voteEPZNKS_4voteERKSt3mapIi12SmartPointerI6PlayerESt4lessIiESaISt4pairIKiS3_EEEiR6LoggeriE102_ZNK12Commissioner4voteERKSt3mapIi12SmartPointerI6PlayerESt4lessIiESaISt4pairIKiS3_EEEiR6Loggeri.Frame.actor+0x94>
    937d:	83 f8 02             	cmp    eax,0x2
    9380:	0f 84 98 00 00 00    	je     941e <_ZN12Commissioner4voteEPZNKS_4voteERKSt3mapIi12SmartPointerI6PlayerESt4lessIiESaISt4pairIKiS3_EEEiR6LoggeriE102_ZNK12Commissioner4voteERKSt3mapIi12SmartPointerI6PlayerESt4lessIiESaISt4pairIKiS3_EEEiR6Loggeri.Frame.actor+0x12a>
    9386:	eb 54                	jmp    93dc <_ZN12Commissioner4voteEPZNKS_4voteERKSt3mapIi12SmartPointerI6PlayerESt4lessIiESaISt4pairIKiS3_EEEiR6LoggeriE102_ZNK12Commissioner4voteERKSt3mapIi12SmartPointerI6PlayerESt4lessIiESaISt4pairIKiS3_EEEiR6Loggeri.Frame.actor+0xe8>
    9388:	48 8b 9d 08 ff ff ff 	mov    rbx,QWORD PTR [rbp-0xf8]
    938f:	48 8b 85 08 ff ff ff 	mov    rax,QWORD PTR [rbp-0xf8]
    9396:	48 89 c7             	mov    rdi,rax
    9399:	e8 d2 3b 01 00       	call   1cf70 <_ZNSt7__n486116coroutine_handleIN12PlayerAction12promise_typeEE12from_addressEPv>
    939e:	48 89 43 18          	mov    QWORD PTR [rbx+0x18],rax
    93a2:	48 8b 85 08 ff ff ff 	mov    rax,QWORD PTR [rbp-0xf8]
    93a9:	c6 40 47 00          	mov    BYTE PTR [rax+0x47],0x0
    93ad:	48 8b 85 08 ff ff ff 	mov    rax,QWORD PTR [rbp-0xf8]
    93b4:	48 83 c0 10          	add    rax,0x10
    93b8:	48 89 c7             	mov    rdi,rax
    93bb:	e8 06 0a 01 00       	call   19dc6 <_ZN12PlayerAction12promise_type15initial_suspendEv>
    93c0:	48 8b 85 08 ff ff ff 	mov    rax,QWORD PTR [rbp-0xf8]
    93c7:	48 83 c0 48          	add    rax,0x48
    93cb:	48 89 c7             	mov    rdi,rax
    93ce:	e8 67 01 01 00       	call   1953a <_ZNKSt7__n486114suspend_always11await_readyEv>
    93d3:	83 f0 01             	xor    eax,0x1
    93d6:	84 c0                	test   al,al
    93d8:	75 04                	jne    93de <_ZN12Commissioner4voteEPZNKS_4voteERKSt3mapIi12SmartPointerI6PlayerESt4lessIiESaISt4pairIKiS3_EEEiR6LoggeriE102_ZNK12Commissioner4voteERKSt3mapIi12SmartPointerI6PlayerESt4lessIiESaISt4pairIKiS3_EEEiR6Loggeri.Frame.actor+0xea>
    93da:	eb 42                	jmp    941e <_ZN12Commissioner4voteEPZNKS_4voteERKSt3mapIi12SmartPointerI6PlayerESt4lessIiESaISt4pairIKiS3_EEEiR6LoggeriE102_ZNK12Commissioner4voteERKSt3mapIi12SmartPointerI6PlayerESt4lessIiESaISt4pairIKiS3_EEEiR6Loggeri.Frame.actor+0x12a>
    93dc:	0f 0b                	ud2    
    93de:	48 8b 85 08 ff ff ff 	mov    rax,QWORD PTR [rbp-0xf8]
    93e5:	66 c7 40 44 02 00    	mov    WORD PTR [rax+0x44],0x2
    93eb:	48 8b 85 08 ff ff ff 	mov    rax,QWORD PTR [rbp-0xf8]
    93f2:	48 8d 58 48          	lea    rbx,[rax+0x48]
    93f6:	48 8b 85 08 ff ff ff 	mov    rax,QWORD PTR [rbp-0xf8]
    93fd:	48 83 c0 18          	add    rax,0x18
    9401:	48 89 c7             	mov    rdi,rax
    9404:	e8 41 3b 01 00       	call   1cf4a <_ZNKSt7__n486116coroutine_handleIN12PlayerAction12promise_typeEEcvNS0_IvEEEv>
    9409:	48 89 c6             	mov    rsi,rax
    940c:	48 89 df             	mov    rdi,rbx
    940f:	e8 3a 01 01 00       	call   1954e <_ZNKSt7__n486114suspend_always13await_suspendENS_16coroutine_handleIvEE>
    9414:	e9 6f 03 00 00       	jmp    9788 <_ZN12Commissioner4voteEPZNKS_4voteERKSt3mapIi12SmartPointerI6PlayerESt4lessIiESaISt4pairIKiS3_EEEiR6LoggeriE102_ZNK12Commissioner4voteERKSt3mapIi12SmartPointerI6PlayerESt4lessIiESaISt4pairIKiS3_EEEiR6Loggeri.Frame.actor+0x494>
    9419:	e9 40 03 00 00       	jmp    975e <_ZN12Commissioner4voteEPZNKS_4voteERKSt3mapIi12SmartPointerI6PlayerESt4lessIiESaISt4pairIKiS3_EEEiR6LoggeriE102_ZNK12Commissioner4voteERKSt3mapIi12SmartPointerI6PlayerESt4lessIiESaISt4pairIKiS3_EEEiR6Loggeri.Frame.actor+0x46a>
    941e:	48 8b 85 08 ff ff ff 	mov    rax,QWORD PTR [rbp-0xf8]
    9425:	c6 40 47 01          	mov    BYTE PTR [rax+0x47],0x1
    9429:	48 8b 85 08 ff ff ff 	mov    rax,QWORD PTR [rbp-0xf8]
    9430:	48 83 c0 48          	add    rax,0x48
    9434:	48 89 c7             	mov    rdi,rax
    9437:	e8 26 01 01 00       	call   19562 <_ZNKSt7__n486114suspend_always12await_resumeEv>
    943c:	48 8b 85 08 ff ff ff 	mov    rax,QWORD PTR [rbp-0xf8]
    9443:	48 8b 40 20          	mov    rax,QWORD PTR [rax+0x20]
    9447:	c7 40 14 ff ff ff ff 	mov    DWORD PTR [rax+0x14],0xffffffff
    944e:	48 8b 85 08 ff ff ff 	mov    rax,QWORD PTR [rbp-0xf8]
    9455:	48 8b 40 20          	mov    rax,QWORD PTR [rax+0x20]
    9459:	8b 40 10             	mov    eax,DWORD PTR [rax+0x10]
    945c:	83 f8 ff             	cmp    eax,0xffffffff
    945f:	74 6d                	je     94ce <_ZN12Commissioner4voteEPZNKS_4voteERKSt3mapIi12SmartPointerI6PlayerESt4lessIiESaISt4pairIKiS3_EEEiR6LoggeriE102_ZNK12Commissioner4voteERKSt3mapIi12SmartPointerI6PlayerESt4lessIiESaISt4pairIKiS3_EEEiR6Loggeri.Frame.actor+0x1da>
    9461:	48 8b 85 08 ff ff ff 	mov    rax,QWORD PTR [rbp-0xf8]
    9468:	48 8b 40 28          	mov    rax,QWORD PTR [rax+0x28]
    946c:	48 89 c7             	mov    rdi,rax
    946f:	e8 3a 3c 01 00       	call   1d0ae <_ZNKSt3mapIi12SmartPointerI6PlayerESt4lessIiESaISt4pairIKiS2_EEE3endEv>
    9474:	48 89 85 18 ff ff ff 	mov    QWORD PTR [rbp-0xe8],rax
    947b:	48 8b 85 08 ff ff ff 	mov    rax,QWORD PTR [rbp-0xf8]
    9482:	48 8b 40 28          	mov    rax,QWORD PTR [rax+0x28]
    9486:	48 8b 95 08 ff ff ff 	mov    rdx,QWORD PTR [rbp-0xf8]
    948d:	48 8b 52 20          	mov    rdx,QWORD PTR [rdx+0x20]
    9491:	48 83 c2 10          	add    rdx,0x10
    9495:	48 89 d6             	mov    rsi,rdx
    9498:	48 89 c7             	mov    rdi,rax
    949b:	e8 54 42 01 00       	call   1d6f4 <_ZNKSt3mapIi12SmartPointerI6PlayerESt4lessIiESaISt4pairIKiS2_EEE4findERS6_>
    94a0:	48 89 85 10 ff ff ff 	mov    QWORD PTR [rbp-0xf0],rax
    94a7:	48 8d 95 18 ff ff ff 	lea    rdx,[rbp-0xe8]
    94ae:	48 8d 85 10 ff ff ff 	lea    rax,[rbp-0xf0]
    94b5:	48 89 d6             	mov    rsi,rdx
    94b8:	48 89 c7             	mov    rdi,rax
    94bb:	e8 0c 3c 01 00       	call   1d0cc <_ZSteqRKSt23_Rb_tree_const_iteratorISt4pairIKi12SmartPointerI6PlayerEEES8_>
    94c0:	83 f0 01             	xor    eax,0x1
    94c3:	84 c0                	test   al,al
    94c5:	74 07                	je     94ce <_ZN12Commissioner4voteEPZNKS_4voteERKSt3mapIi12SmartPointerI6PlayerESt4lessIiESaISt4pairIKiS3_EEEiR6LoggeriE102_ZNK12Commissioner4voteERKSt3mapIi12SmartPointerI6PlayerESt4lessIiESaISt4pairIKiS3_EEEiR6Loggeri.Frame.actor+0x1da>
    94c7:	b8 01 00 00 00       	mov    eax,0x1
    94cc:	eb 05                	jmp    94d3 <_ZN12Commissioner4voteEPZNKS_4voteERKSt3mapIi12SmartPointerI6PlayerESt4lessIiESaISt4pairIKiS3_EEEiR6LoggeriE102_ZNK12Commissioner4voteERKSt3mapIi12SmartPointerI6PlayerESt4lessIiESaISt4pairIKiS3_EEEiR6Loggeri.Frame.actor+0x1df>
    94ce:	b8 00 00 00 00       	mov    eax,0x0
    94d3:	84 c0                	test   al,al
    94d5:	0f 84 40 01 00 00    	je     961b <_ZN12Commissioner4voteEPZNKS_4voteERKSt3mapIi12SmartPointerI6PlayerESt4lessIiESaISt4pairIKiS3_EEEiR6LoggeriE102_ZNK12Commissioner4voteERKSt3mapIi12SmartPointerI6PlayerESt4lessIiESaISt4pairIKiS3_EEEiR6Loggeri.Frame.actor+0x327>
    94db:	48 8b 85 08 ff ff ff 	mov    rax,QWORD PTR [rbp-0xf8]
    94e2:	48 8b 50 20          	mov    rdx,QWORD PTR [rax+0x20]
    94e6:	48 8b 85 08 ff ff ff 	mov    rax,QWORD PTR [rbp-0xf8]
    94ed:	48 8b 40 20          	mov    rax,QWORD PTR [rax+0x20]
    94f1:	8b 52 10             	mov    edx,DWORD PTR [rdx+0x10]
    94f4:	89 50 18             	mov    DWORD PTR [rax+0x18],edx
    94f7:	48 8b 85 08 ff ff ff 	mov    rax,QWORD PTR [rbp-0xf8]
    94fe:	48 8b 58 38          	mov    rbx,QWORD PTR [rax+0x38]
    9502:	48 8b 85 08 ff ff ff 	mov    rax,QWORD PTR [rbp-0xf8]
    9509:	48 8b 40 20          	mov    rax,QWORD PTR [rax+0x20]
    950d:	8b 50 18             	mov    edx,DWORD PTR [rax+0x18]
    9510:	48 8d 45 80          	lea    rax,[rbp-0x80]
    9514:	89 d6                	mov    esi,edx
    9516:	48 89 c7             	mov    rdi,rax
    9519:	e8 a3 ee 00 00       	call   183c1 <_ZNSt7__cxx119to_stringEi>
    951e:	48 8b 85 08 ff ff ff 	mov    rax,QWORD PTR [rbp-0xf8]
    9525:	8b 50 30             	mov    edx,DWORD PTR [rax+0x30]
    9528:	48 8d 85 20 ff ff ff 	lea    rax,[rbp-0xe0]
    952f:	89 d6                	mov    esi,edx
    9531:	48 89 c7             	mov    rdi,rax
    9534:	e8 88 ee 00 00       	call   183c1 <_ZNSt7__cxx119to_stringEi>
    9539:	48 8d 85 40 ff ff ff 	lea    rax,[rbp-0xc0]
    9540:	48 8d 95 20 ff ff ff 	lea    rdx,[rbp-0xe0]
    9547:	48 8d 0d 66 0d 02 00 	lea    rcx,[rip+0x20d66]        # 2a2b4 <_ZN9__gnu_cxxL21__default_lock_policyE+0x274>
    954e:	48 89 ce             	mov    rsi,rcx
    9551:	48 89 c7             	mov    rdi,rax
    9554:	e8 7a 23 01 00       	call   1b8d3 <_ZStplIcSt11char_traitsIcESaIcEENSt7__cxx1112basic_stringIT_T0_T1_EEPKS5_OS8_>
    9559:	48 8d 85 60 ff ff ff 	lea    rax,[rbp-0xa0]
    9560:	48 8d 8d 40 ff ff ff 	lea    rcx,[rbp-0xc0]
    9567:	48 8d 15 5a 0d 02 00 	lea    rdx,[rip+0x20d5a]        # 2a2c8 <_ZN9__gnu_cxxL21__default_lock_policyE+0x288>
    956e:	48 89 ce             	mov    rsi,rcx
    9571:	48 89 c7             	mov    rdi,rax
    9574:	e8 7c 37 01 00       	call   1ccf5 <_ZStplIcSt11char_traitsIcESaIcEENSt7__cxx1112basic_stringIT_T0_T1_EEOS8_PKS5_>
    9579:	48 8d 45 a0          	lea    rax,[rbp-0x60]
    957d:	48 8d 55 80          	lea    rdx,[rbp-0x80]
    9581:	48 8d 8d 60 ff ff ff 	lea    rcx,[rbp-0xa0]
    9588:	48 89 ce             	mov    rsi,rcx
    958b:	48 89 c7             	mov    rdi,rax
    958e:	e8 57 22 01 00       	call   1b7ea <_ZStplIcSt11char_traitsIcESaIcEENSt7__cxx1112basic_stringIT_T0_T1_EEOS8_S9_>
    9593:	48 8d 45 c0          	lea    rax,[rbp-0x40]
    9597:	48 8d 4d a0          	lea    rcx,[rbp-0x60]
    959b:	48 8d 15 4e 0d 02 00 	lea    rdx,[rip+0x20d4e]        # 2a2f0 <_ZN9__gnu_cxxL21__default_lock_policyE+0x2b0>
    95a2:	48 89 ce             	mov    rsi,rcx
    95a5:	48 89 c7             	mov    rdi,rax
    95a8:	e8 48 37 01 00       	call   1ccf5 <_ZStplIcSt11char_traitsIcESaIcEENSt7__cxx1112basic_stringIT_T0_T1_EEOS8_PKS5_>
    95ad:	48 8b 85 08 ff ff ff 	mov    rax,QWORD PTR [rbp-0xf8]
    95b4:	8b 40 40             	mov    eax,DWORD PTR [rax+0x40]
    95b7:	48 8d 55 c0          	lea    rdx,[rbp-0x40]
    95bb:	89 c6                	mov    esi,eax
    95bd:	48 89 df             	mov    rdi,rbx
    95c0:	e8 27 04 01 00       	call   199ec <_ZN6Logger8logRoundEiRKNSt7__cxx1112basic_stringIcSt11char_traitsIcESaIcEEE>
    95c5:	48 8d 45 c0          	lea    rax,[rbp-0x40]
    95c9:	48 89 c7             	mov    rdi,rax
    95cc:	e8 15 1f 01 00       	call   1b4e6 <_ZNSt7__cxx1112basic_stringIcSt11char_traitsIcESaIcEED1Ev>
    95d1:	48 8d 45 a0          	lea    rax,[rbp-0x60]
    95d5:	48 89 c7             	mov    rdi,rax
    95d8:	e8 09 1f 01 00       	call   1b4e6 <_ZNSt7__cxx1112basic_stringIcSt11char_traitsIcESaIcEED1Ev>
    95dd:	48 8d 85 60 ff ff ff 	lea    rax,[rbp-0xa0]
    95e4:	48 89 c7             	mov    rdi,rax
    95e7:	e8 fa 1e 01 00       	call   1b4e6 <_ZNSt7__cxx1112basic_stringIcSt11char_traitsIcESaIcEED1Ev>
    95ec:	48 8d 85 40 ff ff ff 	lea    rax,[rbp-0xc0]
    95f3:	48 89 c7             	mov    rdi,rax
    95f6:	e8 eb 1e 01 00       	call   1b4e6 <_ZNSt7__cxx1112basic_stringIcSt11char_traitsIcESaIcEED1Ev>
    95fb:	48 8d 85 20 ff ff ff 	lea    rax,[rbp-0xe0]
    9602:	48 89 c7             	mov    rdi,rax
    9605:	e8 dc 1e 01 00       	call   1b4e6 <_ZNSt7__cxx1112basic_stringIcSt11char_traitsIcESaIcEED1Ev>
    960a:	48 8d 45 80          	lea    rax,[rbp-0x80]
    960e:	48 89 c7             	mov    rdi,rax
    9611:	e8 d0 1e 01 00       	call   1b4e6 <_ZNSt7__cxx1112basic_stringIcSt11char_traitsIcESaIcEED1Ev>
    9616:	e9 a5 00 00 00       	jmp    96c0 <_ZN12Commissioner4voteEPZNKS_4voteERKSt3mapIi12SmartPointerI6PlayerESt4lessIiESaISt4pairIKiS3_EEEiR6LoggeriE102_ZNK12Commissioner4voteERKSt3mapIi12SmartPointerI6PlayerESt4lessIiESaISt4pairIKiS3_EEEiR6Loggeri.Frame.actor+0x3cc>
    961b:	48 8b 85 08 ff ff ff 	mov    rax,QWORD PTR [rbp-0xf8]
    9622:	48 8b 58 38          	mov    rbx,QWORD PTR [rax+0x38]
    9626:	48 8b 85 08 ff ff ff 	mov    rax,QWORD PTR [rbp-0xf8]
    962d:	8b 50 30             	mov    edx,DWORD PTR [rax+0x30]
    9630:	48 8d 45 80          	lea    rax,[rbp-0x80]
    9634:	89 d6                	mov    esi,edx
    9636:	48 89 c7             	mov    rdi,rax
    9639:	e8 83 ed 00 00       	call   183c1 <_ZNSt7__cxx119to_stringEi>
    963e:	48 8d 45 a0          	lea    rax,[rbp-0x60]
    9642:	48 8d 55 80          	lea    rdx,[rbp-0x80]
    9646:	48 8d 0d 67 0c 02 00 	lea    rcx,[rip+0x20c67]        # 2a2b4 <_ZN9__gnu_cxxL21__default_lock_policyE+0x274>
    964d:	48 89 ce             	mov    rsi,rcx
    9650:	48 89 c7             	mov    rdi,rax
    9653:	e8 7b 22 01 00       	call   1b8d3 <_ZStplIcSt11char_traitsIcESaIcEENSt7__cxx1112basic_stringIT_T0_T1_EEPKS5_OS8_>
    9658:	48 8d 45 c0          	lea    rax,[rbp-0x40]
    965c:	48 8d 4d a0          	lea    rcx,[rbp-0x60]
    9660:	48 8d 15 b1 0c 02 00 	lea    rdx,[rip+0x20cb1]        # 2a318 <_ZN9__gnu_cxxL21__default_lock_policyE+0x2d8>
    9667:	48 89 ce             	mov    rsi,rcx
    966a:	48 89 c7             	mov    rdi,rax
    966d:	e8 83 36 01 00       	call   1ccf5 <_ZStplIcSt11char_traitsIcESaIcEENSt7__cxx1112basic_stringIT_T0_T1_EEOS8_PKS5_>
    9672:	48 8b 85 08 ff ff ff 	mov    rax,QWORD PTR [rbp-0xf8]
    9679:	8b 40 40             	mov    eax,DWORD PTR [rax+0x40]
    967c:	48 8d 55 c0          	lea    rdx,[rbp-0x40]
    9680:	89 c6                	mov    esi,eax
    9682:	48 89 df             	mov    rdi,rbx
    9685:	e8 62 03 01 00       	call   199ec <_ZN6Logger8logRoundEiRKNSt7__cxx1112basic_stringIcSt11char_traitsIcESaIcEEE>
    968a:	48 8d 45 c0          	lea    rax,[rbp-0x40]
    968e:	48 89 c7             	mov    rdi,rax
    9691:	e8 50 1e 01 00       	call   1b4e6 <_ZNSt7__cxx1112basic_stringIcSt11char_traitsIcESaIcEED1Ev>
    9696:	48 8d 45 a0          	lea    rax,[rbp-0x60]
    969a:	48 89 c7             	mov    rdi,rax
    969d:	e8 44 1e 01 00       	call   1b4e6 <_ZNSt7__cxx1112basic_stringIcSt11char_traitsIcESaIcEED1Ev>
    96a2:	48 8d 45 80          	lea    rax,[rbp-0x80]
    96a6:	48 89 c7             	mov    rdi,rax
    96a9:	e8 38 1e 01 00       	call   1b4e6 <_ZNSt7__cxx1112basic_stringIcSt11char_traitsIcESaIcEED1Ev>
    96ae:	48 8b 85 08 ff ff ff 	mov    rax,QWORD PTR [rbp-0xf8]
    96b5:	48 8b 40 20          	mov    rax,QWORD PTR [rax+0x20]
    96b9:	c7 40 18 ff ff ff ff 	mov    DWORD PTR [rax+0x18],0xffffffff
    96c0:	48 8b 85 08 ff ff ff 	mov    rax,QWORD PTR [rbp-0xf8]
    96c7:	48 83 c0 10          	add    rax,0x10
    96cb:	48 89 c7             	mov    rdi,rax
    96ce:	e8 13 07 01 00       	call   19de6 <_ZN12PlayerAction12promise_type11return_voidEv>
    96d3:	48 8b 85 08 ff ff ff 	mov    rax,QWORD PTR [rbp-0xf8]
    96da:	48 c7 00 00 00 00 00 	mov    QWORD PTR [rax],0x0
    96e1:	48 8b 85 08 ff ff ff 	mov    rax,QWORD PTR [rbp-0xf8]
    96e8:	48 83 c0 10          	add    rax,0x10
    96ec:	48 89 c7             	mov    rdi,rax
